SF:/workspaces/pep10term/dependencies/pepcore/src/libisa/asmb/pep10/create_driver.cpp
FN:8,_ZN4asmb5pep106driver11make_driverEv
FN:105,_ZN4asmb5pep106driver8assembleENSt7__cxx1112basic_stringIcSt11char_traitsIcESaIcEEES7_
FN:13,create_driver.cpp:_ZZN4asmb5pep106driver11make_driverEvENK3$_0clERSt10shared_ptrIN4masm7project7projectItEEERNSt7__cxx114listISt7variantIJS3_INS5_11source_fileEES3_INS4_3elf12code_sectionItEEES3_INSF_5imageItEEEEESaISM_EEE
FN:16,create_driver.cpp:_ZZZN4asmb5pep106driver11make_driverEvENK3$_0clERSt10shared_ptrIN4masm7project7projectItEEERNSt7__cxx114listISt7variantIJS3_INS5_11source_fileEES3_INS4_3elf12code_sectionItEEES3_INSF_5imageItEEEEESaISM_EEEENKUlRT_E_clISM_EEDaSR_
FN:25,create_driver.cpp:_ZZN4asmb5pep106driver11make_driverEvENK3$_5clERSt10shared_ptrIN4masm7project7projectItEEERNSt7__cxx114listISt7variantIJS3_INS5_11source_fileEES3_INS4_3elf12code_sectionItEEES3_INSF_5imageItEEEEESaISM_EEE
FN:42,create_driver.cpp:_ZZN4asmb5pep106driver11make_driverEvENK3$_1clERSt10shared_ptrIN4masm7project7projectItEEERNSt7__cxx114listISt7variantIJS3_INS5_11source_fileEES3_INS4_3elf12code_sectionItEEES3_INSF_5imageItEEEEESaISM_EEE
FN:45,create_driver.cpp:_ZZZN4asmb5pep106driver11make_driverEvENK3$_1clERSt10shared_ptrIN4masm7project7projectItEEERNSt7__cxx114listISt7variantIJS3_INS5_11source_fileEES3_INS4_3elf12code_sectionItEEES3_INSF_5imageItEEEEESaISM_EEEENKUlRT_E_clISM_EEDaSR_
FN:53,create_driver.cpp:_ZZN4asmb5pep106driver11make_driverEvENK3$_2clERSt10shared_ptrIN4masm7project7projectItEEERNSt7__cxx114listISt7variantIJS3_INS5_11source_fileEES3_INS4_3elf12code_sectionItEEES3_INSF_5imageItEEEEESaISM_EEE
FN:58,create_driver.cpp:_ZZZN4asmb5pep106driver11make_driverEvENK3$_2clERSt10shared_ptrIN4masm7project7projectItEEERNSt7__cxx114listISt7variantIJS3_INS5_11source_fileEES3_INS4_3elf12code_sectionItEEES3_INSF_5imageItEEEEESaISM_EEEENKUlRT_E_clISM_EEDaSR_
FN:72,create_driver.cpp:_ZZN4asmb5pep106driver11make_driverEvENK3$_3clERSt10shared_ptrIN4masm7project7projectItEEERNSt7__cxx114listISt7variantIJS3_INS5_11source_fileEES3_INS4_3elf12code_sectionItEEES3_INSF_5imageItEEEEESaISM_EEE
FN:80,create_driver.cpp:_ZZZN4asmb5pep106driver11make_driverEvENK3$_3clERSt10shared_ptrIN4masm7project7projectItEEERNSt7__cxx114listISt7variantIJS3_INS5_11source_fileEES3_INS4_3elf12code_sectionItEEES3_INSF_5imageItEEEEESaISM_EEEENKUlT_E_clISL_EEDaSQ_
FN:90,create_driver.cpp:_ZZN4asmb5pep106driver11make_driverEvENK3$_4clERSt10shared_ptrIN4masm7project7projectItEEERNSt7__cxx114listISt7variantIJS3_INS5_11source_fileEES3_INS4_3elf12code_sectionItEEES3_INSF_5imageItEEEEESaISM_EEE
FN:93,create_driver.cpp:_ZZZN4asmb5pep106driver11make_driverEvENK3$_4clERSt10shared_ptrIN4masm7project7projectItEEERNSt7__cxx114listISt7variantIJS3_INS5_11source_fileEES3_INS4_3elf12code_sectionItEEES3_INSF_5imageItEEEEESaISM_EEEENKUlT_E_clISM_EEDaSQ_
FNDA:141,_ZN4asmb5pep106driver11make_driverEv
FNDA:0,_ZN4asmb5pep106driver8assembleENSt7__cxx1112basic_stringIcSt11char_traitsIcESaIcEEES7_
FNDA:251,create_driver.cpp:_ZZN4asmb5pep106driver11make_driverEvENK3$_0clERSt10shared_ptrIN4masm7project7projectItEEERNSt7__cxx114listISt7variantIJS3_INS5_11source_fileEES3_INS4_3elf12code_sectionItEEES3_INSF_5imageItEEEEESaISM_EEE
FNDA:411,create_driver.cpp:_ZZZN4asmb5pep106driver11make_driverEvENK3$_0clERSt10shared_ptrIN4masm7project7projectItEEERNSt7__cxx114listISt7variantIJS3_INS5_11source_fileEES3_INS4_3elf12code_sectionItEEES3_INSF_5imageItEEEEESaISM_EEEENKUlRT_E_clISM_EEDaSR_
FNDA:249,create_driver.cpp:_ZZN4asmb5pep106driver11make_driverEvENK3$_5clERSt10shared_ptrIN4masm7project7projectItEEERNSt7__cxx114listISt7variantIJS3_INS5_11source_fileEES3_INS4_3elf12code_sectionItEEES3_INSF_5imageItEEEEESaISM_EEE
FNDA:177,create_driver.cpp:_ZZN4asmb5pep106driver11make_driverEvENK3$_1clERSt10shared_ptrIN4masm7project7projectItEEERNSt7__cxx114listISt7variantIJS3_INS5_11source_fileEES3_INS4_3elf12code_sectionItEEES3_INSF_5imageItEEEEESaISM_EEE
FNDA:409,create_driver.cpp:_ZZZN4asmb5pep106driver11make_driverEvENK3$_1clERSt10shared_ptrIN4masm7project7projectItEEERNSt7__cxx114listISt7variantIJS3_INS5_11source_fileEES3_INS4_3elf12code_sectionItEEES3_INSF_5imageItEEEEESaISM_EEEENKUlRT_E_clISM_EEDaSR_
FNDA:56,create_driver.cpp:_ZZN4asmb5pep106driver11make_driverEvENK3$_2clERSt10shared_ptrIN4masm7project7projectItEEERNSt7__cxx114listISt7variantIJS3_INS5_11source_fileEES3_INS4_3elf12code_sectionItEEES3_INSF_5imageItEEEEESaISM_EEE
FNDA:203,create_driver.cpp:_ZZZN4asmb5pep106driver11make_driverEvENK3$_2clERSt10shared_ptrIN4masm7project7projectItEEERNSt7__cxx114listISt7variantIJS3_INS5_11source_fileEES3_INS4_3elf12code_sectionItEEES3_INSF_5imageItEEEEESaISM_EEEENKUlRT_E_clISM_EEDaSR_
FNDA:51,create_driver.cpp:_ZZN4asmb5pep106driver11make_driverEvENK3$_3clERSt10shared_ptrIN4masm7project7projectItEEERNSt7__cxx114listISt7variantIJS3_INS5_11source_fileEES3_INS4_3elf12code_sectionItEEES3_INSF_5imageItEEEEESaISM_EEE
FNDA:51,create_driver.cpp:_ZZZN4asmb5pep106driver11make_driverEvENK3$_3clERSt10shared_ptrIN4masm7project7projectItEEERNSt7__cxx114listISt7variantIJS3_INS5_11source_fileEES3_INS4_3elf12code_sectionItEEES3_INSF_5imageItEEEEESaISM_EEEENKUlT_E_clISL_EEDaSQ_
FNDA:44,create_driver.cpp:_ZZN4asmb5pep106driver11make_driverEvENK3$_4clERSt10shared_ptrIN4masm7project7projectItEEERNSt7__cxx114listISt7variantIJS3_INS5_11source_fileEES3_INS4_3elf12code_sectionItEEES3_INSF_5imageItEEEEESaISM_EEE
FNDA:44,create_driver.cpp:_ZZZN4asmb5pep106driver11make_driverEvENK3$_4clERSt10shared_ptrIN4masm7project7projectItEEERNSt7__cxx114listISt7variantIJS3_INS5_11source_fileEES3_INS4_3elf12code_sectionItEEES3_INSF_5imageItEEEEESaISM_EEEENKUlT_E_clISM_EEDaSQ_
FNF:13
FNH:12
DA:8,141
DA:9,141
DA:10,141
DA:12,141
DA:13,251
DA:14,251
DA:15,251
DA:16,411
DA:17,411
DA:18,411
DA:19,411
DA:20,251
DA:21,251
DA:22,141
DA:24,141
DA:25,249
DA:26,249
DA:27,249
DA:28,409
DA:29,409
DA:30,409
DA:31,232
DA:32,232
DA:33,232
DA:34,409
DA:35,409
DA:36,409
DA:37,249
DA:38,249
DA:39,141
DA:41,141
DA:42,177
DA:43,177
DA:44,177
DA:45,409
DA:46,409
DA:47,409
DA:48,409
DA:49,177
DA:50,177
DA:51,141
DA:53,141
DA:54,56
DA:55,56
DA:56,56
DA:57,56
DA:58,203
DA:59,203
DA:60,203
DA:61,203
DA:62,56
DA:63,56
DA:64,56
DA:65,56
DA:66,203
DA:67,203
DA:68,56
DA:69,56
DA:70,141
DA:72,141
DA:73,51
DA:74,51
DA:75,198
DA:76,198
DA:77,198
DA:79,51
DA:80,51
DA:82,51
DA:83,51
DA:84,51
DA:85,51
DA:86,51
DA:87,51
DA:88,141
DA:90,141
DA:91,44
DA:92,44
DA:93,44
DA:94,44
DA:95,44
DA:96,44
DA:97,44
DA:98,44
DA:99,44
DA:100,141
DA:101,141
DA:102,141
DA:105,0
DA:106,0
DA:107,0
DA:108,0
DA:109,0
DA:110,0
DA:111,0
DA:112,0
DA:113,0
DA:114,0
DA:115,0
DA:116,0
DA:117,0
DA:118,0
DA:119,0
BRDA:28,0,0,409
BRDA:28,0,1,249
BRDA:30,0,0,232
BRDA:30,0,1,409
BRDA:61,0,0,56
BRDA:61,0,1,147
BRDA:63,0,0,38
BRDA:63,0,1,18
BRDA:75,0,0,198
BRDA:75,0,1,51
BRDA:110,0,0,-
BRDA:110,0,1,-
BRF:12
BFH:10
LF:203
LH:188
end_of_record
SF:/workspaces/pep10term/dependencies/pepcore/src/libisa/asmb/pep10/directives.hpp
FN:15,_ZN4asmb5pep1010dot_exportItED2Ev
FN:42,_ZN4asmb5pep109dot_scallItED2Ev
FN:68,_ZN4asmb5pep1010dot_uscallItED2Ev
FNDA:436,_ZN4asmb5pep1010dot_exportItED2Ev
FNDA:202,_ZN4asmb5pep109dot_scallItED2Ev
FNDA:46,_ZN4asmb5pep1010dot_uscallItED2Ev
FNF:3
FNH:3
DA:15,436
DA:42,202
DA:68,46
BRF:0
BFH:0
LF:3
LH:3
end_of_record
SF:/workspaces/pep10term/dependencies/pepcore/src/libisa/asmb/pep10/directives.tpp
FN:6,_ZN4asmb5pep1010dot_exportItEC2Ev
FN:26,_ZNK4asmb5pep1010dot_exportItE5cloneEv
FN:11,_ZN4asmb5pep1010dot_exportItEC2ERKS2_
FN:32,_ZNK4asmb5pep1010dot_exportItE23generate_listing_stringB5cxx11Ev
FN:44,_ZNK4asmb5pep1010dot_exportItE22generate_source_stringB5cxx11Ev
FN:58,_ZNK4asmb5pep1010dot_exportItE18append_object_codeERSt6vectorIhSaIhEE
FN:68,_ZN4asmb5pep109dot_scallItEC2Ev
FN:88,_ZNK4asmb5pep109dot_scallItE5cloneEv
FN:73,_ZN4asmb5pep109dot_scallItEC2ERKS2_
FN:94,_ZNK4asmb5pep109dot_scallItE23generate_listing_stringB5cxx11Ev
FN:106,_ZNK4asmb5pep109dot_scallItE22generate_source_stringB5cxx11Ev
FN:120,_ZNK4asmb5pep109dot_scallItE18append_object_codeERSt6vectorIhSaIhEE
FN:129,_ZN4asmb5pep1010dot_uscallItEC2Ev
FN:149,_ZNK4asmb5pep1010dot_uscallItE5cloneEv
FN:134,_ZN4asmb5pep1010dot_uscallItEC2ERKS2_
FN:155,_ZNK4asmb5pep1010dot_uscallItE23generate_listing_stringB5cxx11Ev
FN:167,_ZNK4asmb5pep1010dot_uscallItE22generate_source_stringB5cxx11Ev
FN:181,_ZNK4asmb5pep1010dot_uscallItE18append_object_codeERSt6vectorIhSaIhEE
FNDA:436,_ZN4asmb5pep1010dot_exportItEC2Ev
FNDA:0,_ZNK4asmb5pep1010dot_exportItE5cloneEv
FNDA:0,_ZN4asmb5pep1010dot_exportItEC2ERKS2_
FNDA:0,_ZNK4asmb5pep1010dot_exportItE23generate_listing_stringB5cxx11Ev
FNDA:0,_ZNK4asmb5pep1010dot_exportItE22generate_source_stringB5cxx11Ev
FNDA:440,_ZNK4asmb5pep1010dot_exportItE18append_object_codeERSt6vectorIhSaIhEE
FNDA:202,_ZN4asmb5pep109dot_scallItEC2Ev
FNDA:0,_ZNK4asmb5pep109dot_scallItE5cloneEv
FNDA:0,_ZN4asmb5pep109dot_scallItEC2ERKS2_
FNDA:0,_ZNK4asmb5pep109dot_scallItE23generate_listing_stringB5cxx11Ev
FNDA:0,_ZNK4asmb5pep109dot_scallItE22generate_source_stringB5cxx11Ev
FNDA:200,_ZNK4asmb5pep109dot_scallItE18append_object_codeERSt6vectorIhSaIhEE
FNDA:46,_ZN4asmb5pep1010dot_uscallItEC2Ev
FNDA:0,_ZNK4asmb5pep1010dot_uscallItE5cloneEv
FNDA:0,_ZN4asmb5pep1010dot_uscallItEC2ERKS2_
FNDA:0,_ZNK4asmb5pep1010dot_uscallItE23generate_listing_stringB5cxx11Ev
FNDA:0,_ZNK4asmb5pep1010dot_uscallItE22generate_source_stringB5cxx11Ev
FNDA:40,_ZNK4asmb5pep1010dot_uscallItE18append_object_codeERSt6vectorIhSaIhEE
FNF:18
FNH:6
DA:6,436
DA:7,436
DA:11,0
DA:13,0
DA:26,0
DA:27,0
DA:28,0
DA:32,0
DA:33,0
DA:34,0
DA:35,0
DA:36,0
DA:37,0
DA:39,0
DA:40,0
DA:44,0
DA:45,0
DA:46,0
DA:47,0
DA:48,0
DA:49,0
DA:50,0
DA:51,0
DA:52,0
DA:54,0
DA:58,440
DA:59,440
DA:60,440
DA:68,202
DA:69,202
DA:73,0
DA:75,0
DA:88,0
DA:89,0
DA:90,0
DA:94,0
DA:95,0
DA:96,0
DA:97,0
DA:98,0
DA:99,0
DA:101,0
DA:102,0
DA:106,0
DA:107,0
DA:108,0
DA:109,0
DA:110,0
DA:111,0
DA:112,0
DA:113,0
DA:114,0
DA:116,0
DA:120,200
DA:121,200
DA:122,200
DA:129,46
DA:130,46
DA:134,0
DA:136,0
DA:149,0
DA:150,0
DA:151,0
DA:155,0
DA:156,0
DA:157,0
DA:158,0
DA:159,0
DA:160,0
DA:162,0
DA:163,0
DA:167,0
DA:168,0
DA:169,0
DA:170,0
DA:171,0
DA:172,0
DA:173,0
DA:174,0
DA:175,0
DA:177,0
DA:181,40
DA:182,40
DA:183,40
BRF:0
BFH:0
LF:84
LH:15
end_of_record
SF:/workspaces/pep10term/dependencies/pepcore/src/libisa/asmb/pep10/ir.cpp
FN:9,_ZN4asmb5pep1017unary_instructionC2Ev
FN:14,_ZN4asmb5pep1017unary_instructionC2ERKS1_
FN:20,_ZN4asmb5pep1017unary_instructionaSES1_
FN:27,_ZNK4asmb5pep1017unary_instruction5cloneEv
FN:32,_ZNK4asmb5pep1017unary_instruction23generate_listing_stringB5cxx11Ev
FN:48,_ZNK4asmb5pep1017unary_instruction22generate_source_stringB5cxx11Ev
FN:66,_ZNK4asmb5pep1017unary_instruction17object_code_bytesEv
FN:71,_ZNK4asmb5pep1017unary_instruction18append_object_codeERSt6vectorIhSaIhEE
FN:81,_ZN4asmb5pep1020nonunary_instructionC2Ev
FN:87,_ZN4asmb5pep1020nonunary_instructionC2ERKS1_
FN:93,_ZN4asmb5pep1020nonunary_instructionaSES1_
FN:100,_ZNK4asmb5pep1020nonunary_instruction5cloneEv
FN:105,_ZNK4asmb5pep1020nonunary_instruction23generate_listing_stringB5cxx11Ev
FN:120,_ZNK4asmb5pep1020nonunary_instruction22generate_source_stringB5cxx11Ev
FN:140,_ZNK4asmb5pep1020nonunary_instruction17object_code_bytesEv
FN:145,_ZNK4asmb5pep1020nonunary_instruction18append_object_codeERSt6vectorIhSaIhEE
FN:156,_ZNK4asmb5pep1020nonunary_instruction16symbolic_operandEv
FNDA:2095,_ZN4asmb5pep1017unary_instructionC2Ev
FNDA:0,_ZN4asmb5pep1017unary_instructionC2ERKS1_
FNDA:0,_ZN4asmb5pep1017unary_instructionaSES1_
FNDA:0,_ZNK4asmb5pep1017unary_instruction5cloneEv
FNDA:0,_ZNK4asmb5pep1017unary_instruction23generate_listing_stringB5cxx11Ev
FNDA:0,_ZNK4asmb5pep1017unary_instruction22generate_source_stringB5cxx11Ev
FNDA:6606,_ZNK4asmb5pep1017unary_instruction17object_code_bytesEv
FNDA:2108,_ZNK4asmb5pep1017unary_instruction18append_object_codeERSt6vectorIhSaIhEE
FNDA:15220,_ZN4asmb5pep1020nonunary_instructionC2Ev
FNDA:0,_ZN4asmb5pep1020nonunary_instructionC2ERKS1_
FNDA:0,_ZN4asmb5pep1020nonunary_instructionaSES1_
FNDA:0,_ZNK4asmb5pep1020nonunary_instruction5cloneEv
FNDA:0,_ZNK4asmb5pep1020nonunary_instruction23generate_listing_stringB5cxx11Ev
FNDA:0,_ZNK4asmb5pep1020nonunary_instruction22generate_source_stringB5cxx11Ev
FNDA:46672,_ZNK4asmb5pep1020nonunary_instruction17object_code_bytesEv
FNDA:15581,_ZNK4asmb5pep1020nonunary_instruction18append_object_codeERSt6vectorIhSaIhEE
FNDA:15215,_ZNK4asmb5pep1020nonunary_instruction16symbolic_operandEv
FNF:17
FNH:7
DA:9,2095
DA:10,2095
DA:11,2095
DA:14,0
DA:16,0
DA:20,0
DA:21,0
DA:22,0
DA:23,0
DA:27,0
DA:28,0
DA:29,0
DA:32,0
DA:34,0
DA:35,0
DA:37,0
DA:38,0
DA:40,0
DA:41,0
DA:42,0
DA:43,0
DA:44,0
DA:45,0
DA:48,0
DA:49,0
DA:50,0
DA:51,0
DA:52,0
DA:54,0
DA:55,0
DA:56,0
DA:57,0
DA:58,0
DA:59,0
DA:60,0
DA:61,0
DA:63,0
DA:66,6606
DA:67,6606
DA:68,6606
DA:71,2108
DA:72,2108
DA:73,2108
DA:74,2108
DA:81,15220
DA:82,15220
DA:83,15220
DA:87,0
DA:89,0
DA:93,0
DA:94,0
DA:95,0
DA:96,0
DA:100,0
DA:101,0
DA:102,0
DA:105,0
DA:107,0
DA:108,0
DA:109,0
DA:110,0
DA:112,0
DA:113,0
DA:114,0
DA:115,0
DA:116,0
DA:117,0
DA:120,0
DA:121,0
DA:122,0
DA:123,0
DA:124,0
DA:126,0
DA:127,0
DA:128,0
DA:130,0
DA:131,0
DA:132,0
DA:133,0
DA:134,0
DA:135,0
DA:137,0
DA:140,46672
DA:141,46672
DA:142,46672
DA:145,15581
DA:146,15581
DA:147,15581
DA:149,15581
DA:150,15581
DA:151,15581
DA:152,15581
DA:153,15581
DA:156,15215
DA:157,15215
DA:158,9919
DA:159,9919
DA:160,5296
DA:161,15215
BRDA:35,0,0,-
BRDA:35,0,1,-
BRDA:50,0,0,-
BRDA:50,0,1,-
BRDA:72,0,0,0
BRDA:72,0,1,2108
BRDA:108,0,0,-
BRDA:108,0,1,-
BRDA:122,0,0,-
BRDA:122,0,1,-
BRDA:146,0,0,0
BRDA:146,0,1,15581
BRDA:157,0,0,9919
BRDA:157,0,1,5296
BRF:14
BFH:4
LF:99
LH:30
end_of_record
SF:/workspaces/pep10term/dependencies/pepcore/src/libisa/asmb/pep10/ir.hpp
FN:26,_ZNK4asmb5pep1017unary_instruction7is_codeEv
FN:29,_ZN4asmb5pep104swapERNS0_17unary_instructionES2_
FN:57,_ZNK4asmb5pep1020nonunary_instruction7is_codeEv
FN:60,_ZN4asmb5pep104swapERNS0_20nonunary_instructionES2_
FN:14,_ZN4asmb5pep1017unary_instructionD2Ev
FN:44,_ZN4asmb5pep1020nonunary_instructionD2Ev
FNDA:0,_ZNK4asmb5pep1017unary_instruction7is_codeEv
FNDA:0,_ZN4asmb5pep104swapERNS0_17unary_instructionES2_
FNDA:0,_ZNK4asmb5pep1020nonunary_instruction7is_codeEv
FNDA:0,_ZN4asmb5pep104swapERNS0_20nonunary_instructionES2_
FNDA:2095,_ZN4asmb5pep1017unary_instructionD2Ev
FNDA:15220,_ZN4asmb5pep1020nonunary_instructionD2Ev
FNF:6
FNH:2
DA:14,2095
DA:26,0
DA:29,0
DA:30,0
DA:31,0
DA:32,0
DA:33,0
DA:34,0
DA:35,0
DA:44,15220
DA:57,0
DA:60,0
DA:61,0
DA:62,0
DA:63,0
DA:64,0
DA:65,0
DA:66,0
DA:67,0
DA:68,0
BRF:0
BFH:0
LF:20
LH:2
end_of_record
SF:/workspaces/pep10term/dependencies/pepcore/src/libisa/asmb/pep10/parser.cpp
FN:22,_ZN4asmb5pep1021requires_byte_operandEN3isa5pep1020instruction_mnemonicE
FN:27,_ZN4asmb5pep1018requires_addr_modeEN3isa5pep1020instruction_mnemonicE
FN:40,_ZN4asmb5pep1015parse_addr_modeENSt7__cxx1112basic_stringIcSt11char_traitsIcESaIcEEE
FN:54,_ZN4asmb5pep1023allowed_addressing_modeEN3isa5pep1020instruction_mnemonicENS2_15addressing_modeE
FN:79,_ZN4asmb5pep1017valid_symbol_nameERKNSt7__cxx1112basic_stringIcSt11char_traitsIcESaIcEEE
FN:88,_ZN4asmb5pep106parser5parseERSt10shared_ptrIN4masm7project7projectItEEERS2_INS3_3elf12code_sectionItEEE
FN:313,_ZN4asmb5pep106parser13parse_operandEN4masm8frontend10token_typeENSt7__cxx1112basic_stringIcSt11char_traitsIcESaIcEEESt10shared_ptrIN6symbol9LeafTableItEEE
FN:358,_ZN4asmb5pep106parser11parse_unaryERN9__gnu_cxx17__normal_iteratorIPSt4pairIN4masm8frontend10token_typeENSt7__cxx1112basic_stringIcSt11char_traitsIcESaIcEEEESt6vectorISE_SaISE_EEEERKSJ_N3isa5pep1020instruction_mnemonicE
FN:367,_ZN4asmb5pep106parser14parse_nonunaryERN9__gnu_cxx17__normal_iteratorIPSt4pairIN4masm8frontend10token_typeENSt7__cxx1112basic_stringIcSt11char_traitsIcESaIcEEEESt6vectorISE_SaISE_EEEERKSJ_St10shared_ptrIN6symbol9LeafTableItEEEN3isa5pep1020instruction_mnemonicE
FN:408,_ZN4asmb5pep106parser22parse_macro_invocationERN9__gnu_cxx17__normal_iteratorIPSt4pairIN4masm8frontend10token_typeENSt7__cxx1112basic_stringIcSt11char_traitsIcESaIcEEEESt6vectorISE_SaISE_EEEERKSJ_
FN:416,_ZN4asmb5pep106parser11parse_ASCIIERN9__gnu_cxx17__normal_iteratorIPSt4pairIN4masm8frontend10token_typeENSt7__cxx1112basic_stringIcSt11char_traitsIcESaIcEEEESt6vectorISE_SaISE_EEEERKSJ_
FN:431,_ZN4asmb5pep106parser11parse_ALIGNERN9__gnu_cxx17__normal_iteratorIPSt4pairIN4masm8frontend10token_typeENSt7__cxx1112basic_stringIcSt11char_traitsIcESaIcEEEESt6vectorISE_SaISE_EEEERKSJ_
FN:455,_ZN4asmb5pep106parser11parse_BLOCKERN9__gnu_cxx17__normal_iteratorIPSt4pairIN4masm8frontend10token_typeENSt7__cxx1112basic_stringIcSt11char_traitsIcESaIcEEEESt6vectorISE_SaISE_EEEERKSJ_
FN:479,_ZN4asmb5pep106parser10parse_BURNERN9__gnu_cxx17__normal_iteratorIPSt4pairIN4masm8frontend10token_typeENSt7__cxx1112basic_stringIcSt11char_traitsIcESaIcEEEESt6vectorISE_SaISE_EEEERKSJ_
FN:502,_ZN4asmb5pep106parser10parse_BYTEERN9__gnu_cxx17__normal_iteratorIPSt4pairIN4masm8frontend10token_typeENSt7__cxx1112basic_stringIcSt11char_traitsIcESaIcEEEESt6vectorISE_SaISE_EEEERKSJ_
FN:528,_ZN4asmb5pep106parser9parse_ENDERN9__gnu_cxx17__normal_iteratorIPSt4pairIN4masm8frontend10token_typeENSt7__cxx1112basic_stringIcSt11char_traitsIcESaIcEEEESt6vectorISE_SaISE_EEEERKSJ_
FN:533,_ZN4asmb5pep106parser12parse_EQUATEERN9__gnu_cxx17__normal_iteratorIPSt4pairIN4masm8frontend10token_typeENSt7__cxx1112basic_stringIcSt11char_traitsIcESaIcEEEESt6vectorISE_SaISE_EEEERKSJ_
FN:561,_ZN4asmb5pep106parser12parse_EXPORTERN9__gnu_cxx17__normal_iteratorIPSt4pairIN4masm8frontend10token_typeENSt7__cxx1112basic_stringIcSt11char_traitsIcESaIcEEEESt6vectorISE_SaISE_EEEERKSJ_St10shared_ptrIN6symbol9LeafTableItEEE
FN:583,_ZN4asmb5pep106parser11parse_SCALLERN9__gnu_cxx17__normal_iteratorIPSt4pairIN4masm8frontend10token_typeENSt7__cxx1112basic_stringIcSt11char_traitsIcESaIcEEEESt6vectorISE_SaISE_EEEERKSJ_St10shared_ptrIN6symbol9LeafTableItEEESN_INS5_14macro_registryEE
FN:606,_ZN4asmb5pep106parser12parse_USCALLERN9__gnu_cxx17__normal_iteratorIPSt4pairIN4masm8frontend10token_typeENSt7__cxx1112basic_stringIcSt11char_traitsIcESaIcEEEESt6vectorISE_SaISE_EEEERKSJ_St10shared_ptrIN6symbol9LeafTableItEEESN_INS5_14macro_registryEE
FN:629,_ZN4asmb5pep106parser10parse_WORDERN9__gnu_cxx17__normal_iteratorIPSt4pairIN4masm8frontend10token_typeENSt7__cxx1112basic_stringIcSt11char_traitsIcESaIcEEEESt6vectorISE_SaISE_EEEERKSJ_St10shared_ptrIN6symbol9LeafTableItEEE
FN:145,parser.cpp:_ZZN4asmb5pep106parser5parseERSt10shared_ptrIN4masm7project7projectItEEERS2_INS3_3elf12code_sectionItEEEENK3$_0clISt4pairIKN3isa5pep1020instruction_mnemonicES2_INSI_22instruction_definitionEEEEEDaT_
FNDA:0,_ZN4asmb5pep1021requires_byte_operandEN3isa5pep1020instruction_mnemonicE
FNDA:45660,_ZN4asmb5pep1018requires_addr_modeEN3isa5pep1020instruction_mnemonicE
FNDA:11250,_ZN4asmb5pep1015parse_addr_modeENSt7__cxx1112basic_stringIcSt11char_traitsIcESaIcEEE
FNDA:15220,_ZN4asmb5pep1023allowed_addressing_modeEN3isa5pep1020instruction_mnemonicENS2_15addressing_modeE
FNDA:11570,_ZN4asmb5pep1017valid_symbol_nameERKNSt7__cxx1112basic_stringIcSt11char_traitsIcESaIcEEE
FNDA:409,_ZN4asmb5pep106parser5parseERSt10shared_ptrIN4masm7project7projectItEEERS2_INS3_3elf12code_sectionItEEE
FNDA:18779,_ZN4asmb5pep106parser13parse_operandEN4masm8frontend10token_typeENSt7__cxx1112basic_stringIcSt11char_traitsIcESaIcEEESt10shared_ptrIN6symbol9LeafTableItEEE
FNDA:2095,_ZN4asmb5pep106parser11parse_unaryERN9__gnu_cxx17__normal_iteratorIPSt4pairIN4masm8frontend10token_typeENSt7__cxx1112basic_stringIcSt11char_traitsIcESaIcEEEESt6vectorISE_SaISE_EEEERKSJ_N3isa5pep1020instruction_mnemonicE
FNDA:15220,_ZN4asmb5pep106parser14parse_nonunaryERN9__gnu_cxx17__normal_iteratorIPSt4pairIN4masm8frontend10token_typeENSt7__cxx1112basic_stringIcSt11char_traitsIcESaIcEEEESt6vectorISE_SaISE_EEEERKSJ_St10shared_ptrIN6symbol9LeafTableItEEEN3isa5pep1020instruction_mnemonicE
FNDA:0,_ZN4asmb5pep106parser22parse_macro_invocationERN9__gnu_cxx17__normal_iteratorIPSt4pairIN4masm8frontend10token_typeENSt7__cxx1112basic_stringIcSt11char_traitsIcESaIcEEEESt6vectorISE_SaISE_EEEERKSJ_
FNDA:244,_ZN4asmb5pep106parser11parse_ASCIIERN9__gnu_cxx17__normal_iteratorIPSt4pairIN4masm8frontend10token_typeENSt7__cxx1112basic_stringIcSt11char_traitsIcESaIcEEEESt6vectorISE_SaISE_EEEERKSJ_
FNDA:8,_ZN4asmb5pep106parser11parse_ALIGNERN9__gnu_cxx17__normal_iteratorIPSt4pairIN4masm8frontend10token_typeENSt7__cxx1112basic_stringIcSt11char_traitsIcESaIcEEEESt6vectorISE_SaISE_EEEERKSJ_
FNDA:424,_ZN4asmb5pep106parser11parse_BLOCKERN9__gnu_cxx17__normal_iteratorIPSt4pairIN4masm8frontend10token_typeENSt7__cxx1112basic_stringIcSt11char_traitsIcESaIcEEEESt6vectorISE_SaISE_EEEERKSJ_
FNDA:60,_ZN4asmb5pep106parser10parse_BURNERN9__gnu_cxx17__normal_iteratorIPSt4pairIN4masm8frontend10token_typeENSt7__cxx1112basic_stringIcSt11char_traitsIcESaIcEEEESt6vectorISE_SaISE_EEEERKSJ_
FNDA:14,_ZN4asmb5pep106parser10parse_BYTEERN9__gnu_cxx17__normal_iteratorIPSt4pairIN4masm8frontend10token_typeENSt7__cxx1112basic_stringIcSt11char_traitsIcESaIcEEEESt6vectorISE_SaISE_EEEERKSJ_
FNDA:327,_ZN4asmb5pep106parser9parse_ENDERN9__gnu_cxx17__normal_iteratorIPSt4pairIN4masm8frontend10token_typeENSt7__cxx1112basic_stringIcSt11char_traitsIcESaIcEEEESt6vectorISE_SaISE_EEEERKSJ_
FNDA:1357,_ZN4asmb5pep106parser12parse_EQUATEERN9__gnu_cxx17__normal_iteratorIPSt4pairIN4masm8frontend10token_typeENSt7__cxx1112basic_stringIcSt11char_traitsIcESaIcEEEESt6vectorISE_SaISE_EEEERKSJ_
FNDA:436,_ZN4asmb5pep106parser12parse_EXPORTERN9__gnu_cxx17__normal_iteratorIPSt4pairIN4masm8frontend10token_typeENSt7__cxx1112basic_stringIcSt11char_traitsIcESaIcEEEESt6vectorISE_SaISE_EEEERKSJ_St10shared_ptrIN6symbol9LeafTableItEEE
FNDA:202,_ZN4asmb5pep106parser11parse_SCALLERN9__gnu_cxx17__normal_iteratorIPSt4pairIN4masm8frontend10token_typeENSt7__cxx1112basic_stringIcSt11char_traitsIcESaIcEEEESt6vectorISE_SaISE_EEEERKSJ_St10shared_ptrIN6symbol9LeafTableItEEESN_INS5_14macro_registryEE
FNDA:46,_ZN4asmb5pep106parser12parse_USCALLERN9__gnu_cxx17__normal_iteratorIPSt4pairIN4masm8frontend10token_typeENSt7__cxx1112basic_stringIcSt11char_traitsIcESaIcEEEESt6vectorISE_SaISE_EEEERKSJ_St10shared_ptrIN6symbol9LeafTableItEEESN_INS5_14macro_registryEE
FNDA:1034,_ZN4asmb5pep106parser10parse_WORDERN9__gnu_cxx17__normal_iteratorIPSt4pairIN4masm8frontend10token_typeENSt7__cxx1112basic_stringIcSt11char_traitsIcESaIcEEEESt6vectorISE_SaISE_EEEERKSJ_St10shared_ptrIN6symbol9LeafTableItEEE
FNDA:597780,parser.cpp:_ZZN4asmb5pep106parser5parseERSt10shared_ptrIN4masm7project7projectItEEERS2_INS3_3elf12code_sectionItEEEENK3$_0clISt4pairIKN3isa5pep1020instruction_mnemonicES2_INSI_22instruction_definitionEEEEEDaT_
FNF:22
FNH:20
DA:22,0
DA:23,0
DA:24,0
DA:25,0
DA:27,45660
DA:28,45660
DA:29,45660
DA:30,45660
DA:31,45660
DA:32,45660
DA:33,45660
DA:34,45660
DA:35,45660
DA:36,45660
DA:37,45660
DA:38,45660
DA:40,11250
DA:41,11250
DA:42,11250
DA:43,5908
DA:44,4152
DA:45,3713
DA:46,3589
DA:47,103
DA:48,87
DA:49,85
DA:50,0
DA:51,11250
DA:54,15220
DA:55,15220
DA:56,15220
DA:57,15220
DA:58,15220
DA:59,15220
DA:60,15220
DA:61,0
DA:62,0
DA:63,0
DA:64,3970
DA:65,3970
DA:66,6848
DA:67,8157
DA:68,8157
DA:69,118
DA:70,118
DA:71,2975
DA:72,2975
DA:73,0
DA:74,0
DA:75,15220
DA:76,15220
DA:79,11570
DA:81,11570
DA:82,11570
DA:83,11570
DA:88,409
DA:89,409
DA:90,409
DA:91,409
DA:92,409
DA:93,409
DA:94,409
DA:95,409
DA:96,409
DA:98,409
DA:99,409
DA:100,409
DA:101,409
DA:102,409
DA:103,409
DA:104,409
DA:106,409
DA:107,409
DA:108,409
DA:109,409
DA:110,27208
DA:111,27208
DA:112,27208
DA:113,27208
DA:114,27208
DA:115,27208
DA:118,27208
DA:120,5308
DA:122,5308
DA:123,5308
DA:124,5308
DA:125,5308
DA:126,5308
DA:127,5308
DA:128,21900
DA:129,197
DA:130,197
DA:131,197
DA:132,197
DA:133,197
DA:136,21703
DA:137,5413
DA:138,5413
DA:141,21703
DA:143,17315
DA:144,17315
DA:145,597780
DA:146,597780
DA:147,597780
DA:148,17315
DA:150,17315
DA:151,17315
DA:152,2095
DA:153,2095
DA:154,15220
DA:155,15220
DA:156,15220
DA:158,17315
DA:159,17315
DA:160,1
DA:161,1
DA:162,1
DA:163,17314
DA:165,17315
DA:167,4388
DA:168,4156
DA:169,3912
DA:170,3904
DA:171,3480
DA:172,60
DA:173,60
DA:174,60
DA:175,0
DA:176,0
DA:177,0
DA:178,60
DA:179,3420
DA:180,3406
DA:181,327
DA:182,327
DA:183,327
DA:184,0
DA:185,0
DA:186,0
DA:187,327
DA:188,3079
DA:189,1357
DA:190,1357
DA:191,1355
DA:192,0
DA:193,0
DA:194,0
DA:195,1355
DA:196,1355
DA:197,1355
DA:198,1355
DA:199,1355
DA:200,1357
DA:201,1722
DA:202,436
DA:203,436
DA:204,1
DA:205,1
DA:206,1
DA:207,436
DA:208,1286
DA:209,202
DA:210,202
DA:211,1
DA:212,1
DA:213,1
DA:214,202
DA:215,1084
DA:216,46
DA:217,46
DA:218,1
DA:219,1
DA:220,1
DA:221,46
DA:222,1038
DA:223,4
DA:224,4
DA:225,4
DA:227,4156
DA:228,4156
DA:229,39
DA:230,39
DA:231,39
DA:232,4117
DA:235,4156
DA:236,232
DA:240,232
DA:244,232
DA:245,232
DA:247,232
DA:250,232
DA:251,232
DA:252,6
DA:253,6
DA:255,6
DA:256,6
DA:259,813
DA:260,813
DA:262,813
DA:263,813
DA:264,232
DA:265,232
DA:266,232
DA:267,813
DA:269,232
DA:270,232
DA:272,232
DA:274,232
DA:276,0
DA:278,0
DA:279,0
DA:280,0
DA:282,0
DA:283,0
DA:284,0
DA:285,0
DA:286,0
DA:287,0
DA:288,0
DA:290,21663
DA:292,12703
DA:293,12703
DA:296,21663
DA:297,0
DA:298,0
DA:299,0
DA:300,0
DA:301,21663
DA:302,21663
DA:303,21663
DA:306,409
DA:307,409
DA:308,409
DA:309,409
DA:313,18779
DA:314,18779
DA:315,18779
DA:316,18779
DA:317,18779
DA:318,11570
DA:319,11570
DA:320,11570
DA:322,11570
DA:323,11570
DA:324,11570
DA:325,11570
DA:326,11570
DA:327,714
DA:329,714
DA:330,714
DA:331,714
DA:332,0
DA:333,6
DA:335,6
DA:336,3
DA:337,3
DA:338,3
DA:339,3
DA:340,3
DA:341,5421
DA:343,5421
DA:344,5421
DA:345,5421
DA:346,1068
DA:348,1068
DA:349,1068
DA:350,1068
DA:351,0
DA:352,0
DA:353,18779
DA:354,18779
DA:358,2095
DA:359,2095
DA:360,2095
DA:361,2095
DA:362,2095
DA:367,15220
DA:368,15220
DA:369,15220
DA:370,15220
DA:371,15220
DA:372,15220
DA:373,15220
DA:374,15220
DA:375,15220
DA:376,15220
DA:377,15220
DA:379,15220
DA:380,15220
DA:381,15220
DA:382,0
DA:383,15220
DA:384,0
DA:385,0
DA:386,15220
DA:387,0
DA:388,0
DA:389,15220
DA:390,0
DA:391,0
DA:392,15220
DA:393,0
DA:394,0
DA:395,15220
DA:396,1
DA:397,1
DA:399,15219
DA:400,15219
DA:401,15219
DA:402,15219
DA:403,15219
DA:404,15219
DA:405,15220
DA:408,0
DA:409,0
DA:411,0
DA:412,0
DA:416,244
DA:417,244
DA:418,244
DA:420,244
DA:421,244
DA:422,4
DA:423,4
DA:424,240
DA:425,240
DA:426,240
DA:427,240
DA:428,0
DA:431,8
DA:432,8
DA:433,8
DA:434,8
DA:435,8
DA:436,8
DA:438,8
DA:439,8
DA:440,2
DA:441,2
DA:442,6
DA:443,0
DA:444,0
DA:445,6
DA:446,3
DA:447,3
DA:448,3
DA:449,3
DA:450,3
DA:451,3
DA:452,0
DA:455,424
DA:456,424
DA:457,424
DA:458,424
DA:459,424
DA:460,424
DA:462,424
DA:463,424
DA:464,2
DA:465,2
DA:466,422
DA:467,0
DA:468,0
DA:469,422
DA:470,0
DA:471,0
DA:472,422
DA:473,422
DA:474,422
DA:475,422
DA:476,0
DA:479,60
DA:480,60
DA:481,60
DA:482,60
DA:483,60
DA:485,60
DA:486,60
DA:487,4
DA:488,4
DA:489,56
DA:490,0
DA:491,0
DA:492,56
DA:493,0
DA:494,0
DA:495,56
DA:496,56
DA:497,56
DA:498,56
DA:499,0
DA:502,14
DA:503,14
DA:504,14
DA:505,14
DA:506,14
DA:507,14
DA:508,14
DA:509,14
DA:511,14
DA:512,14
DA:513,1
DA:514,1
DA:515,13
DA:516,0
DA:517,0
DA:518,13
DA:519,1
DA:520,1
DA:521,12
DA:522,12
DA:523,12
DA:524,12
DA:525,0
DA:528,327
DA:529,327
DA:530,327
DA:533,1357
DA:534,1357
DA:535,1357
DA:536,1357
DA:537,1357
DA:538,1357
DA:539,1357
DA:540,1357
DA:542,1357
DA:543,1357
DA:544,1
DA:545,1
DA:546,1356
DA:547,0
DA:548,0
DA:549,1356
DA:550,1
DA:551,1
DA:552,1355
DA:553,1355
DA:554,1355
DA:555,1355
DA:557,0
DA:561,436
DA:562,436
DA:563,436
DA:565,436
DA:566,436
DA:567,4
DA:568,4
DA:569,432
DA:570,0
DA:571,0
DA:572,432
DA:573,432
DA:574,432
DA:575,432
DA:576,0
DA:577,432
DA:578,432
DA:579,436
DA:583,202
DA:584,202
DA:585,202
DA:586,202
DA:587,202
DA:589,202
DA:590,202
DA:591,4
DA:592,4
DA:593,198
DA:594,0
DA:595,0
DA:596,198
DA:597,198
DA:598,198
DA:599,198
DA:600,198
DA:601,198
DA:602,0
DA:606,46
DA:607,46
DA:608,46
DA:609,46
DA:610,46
DA:612,46
DA:613,46
DA:614,4
DA:615,4
DA:616,42
DA:617,0
DA:618,0
DA:619,42
DA:620,42
DA:621,42
DA:622,42
DA:623,42
DA:624,42
DA:625,0
DA:629,1034
DA:630,1034
DA:631,1034
DA:632,1034
DA:633,1034
DA:634,1034
DA:635,1034
DA:636,1034
DA:637,1034
DA:639,1034
DA:640,1034
DA:641,0
DA:642,0
DA:643,1034
DA:644,0
DA:645,0
DA:646,1034
DA:647,1
DA:648,1
DA:649,1033
DA:650,1033
DA:651,1033
DA:652,1033
DA:653,0
BRDA:23,0,0,-
BRDA:23,0,1,-
BRDA:24,0,0,-
BRDA:24,0,1,-
BRDA:28,0,0,3339
BRDA:28,0,1,42321
BRDA:29,0,0,495
BRDA:29,0,1,41826
BRDA:30,0,0,354
BRDA:30,0,1,41472
BRDA:31,0,0,945
BRDA:31,0,1,40527
BRDA:32,0,0,1419
BRDA:32,0,1,39108
BRDA:33,0,0,369
BRDA:33,0,1,38739
BRDA:34,0,0,486
BRDA:34,0,1,38253
BRDA:35,0,0,585
BRDA:35,0,1,37668
BRDA:36,0,0,0
BRDA:36,0,1,37668
BRDA:37,0,0,3918
BRDA:37,0,1,33750
BRDA:42,0,0,5342
BRDA:42,0,1,5908
BRDA:43,0,0,1756
BRDA:43,0,1,4152
BRDA:44,0,0,439
BRDA:44,0,1,3713
BRDA:45,0,0,124
BRDA:45,0,1,3589
BRDA:46,0,0,3486
BRDA:46,0,1,103
BRDA:47,0,0,16
BRDA:47,0,1,87
BRDA:48,0,0,2
BRDA:48,0,1,85
BRDA:49,0,0,85
BRDA:49,0,1,0
BRDA:58,0,0,0
BRDA:58,0,1,15220
BRDA:61,0,0,0
BRDA:61,0,1,15220
BRDA:62,0,0,0
BRDA:62,0,1,15220
BRDA:64,0,0,3970
BRDA:64,0,1,11250
BRDA:65,0,0,3970
BRDA:65,0,1,0
BRDA:65,1,2,-
BRDA:65,1,3,-
BRDA:66,0,0,6848
BRDA:66,0,1,8372
BRDA:67,0,0,1309
BRDA:67,0,1,13911
BRDA:69,0,0,118
BRDA:69,0,1,15102
BRDA:71,0,0,2975
BRDA:71,0,1,12245
BRDA:73,0,0,0
BRDA:73,0,1,15220
BRDA:81,0,0,0
BRDA:81,0,1,11570
BRDA:110,0,0,27208
BRDA:110,0,1,409
BRDA:118,0,0,5308
BRDA:118,0,1,21900
BRDA:128,0,0,197
BRDA:128,0,1,21703
BRDA:136,0,0,5413
BRDA:136,0,1,16290
BRDA:141,0,0,17315
BRDA:141,0,1,4388
BRDA:150,0,0,0
BRDA:150,0,1,17315
BRDA:151,0,0,2095
BRDA:151,0,1,15220
BRDA:159,0,0,1
BRDA:159,0,1,17314
BRDA:163,0,0,3094
BRDA:163,0,1,14220
BRDA:167,0,0,4156
BRDA:167,0,1,232
BRDA:168,0,0,244
BRDA:168,0,1,3912
BRDA:169,0,0,8
BRDA:169,0,1,3904
BRDA:170,0,0,424
BRDA:170,0,1,3480
BRDA:171,0,0,60
BRDA:171,0,1,3420
BRDA:173,0,0,56
BRDA:173,0,1,4
BRDA:174,0,0,56
BRDA:174,0,1,4
BRDA:174,1,2,0
BRDA:174,1,3,56
BRDA:179,0,0,14
BRDA:179,0,1,3406
BRDA:180,0,0,327
BRDA:180,0,1,3079
BRDA:182,0,0,327
BRDA:182,0,1,0
BRDA:183,0,0,327
BRDA:183,0,1,0
BRDA:183,1,2,0
BRDA:183,1,3,327
BRDA:188,0,0,1357
BRDA:188,0,1,1722
BRDA:190,0,0,2
BRDA:190,0,1,1355
BRDA:191,0,0,0
BRDA:191,0,1,1355
BRDA:201,0,0,436
BRDA:201,0,1,1286
BRDA:203,0,0,432
BRDA:203,0,1,4
BRDA:203,1,2,1
BRDA:203,1,3,431
BRDA:208,0,0,202
BRDA:208,0,1,1084
BRDA:210,0,0,198
BRDA:210,0,1,4
BRDA:210,1,2,1
BRDA:210,1,3,197
BRDA:215,0,0,46
BRDA:215,0,1,1038
BRDA:217,0,0,42
BRDA:217,0,1,4
BRDA:217,1,2,1
BRDA:217,1,3,41
BRDA:222,0,0,1034
BRDA:222,0,1,4
BRDA:228,0,0,39
BRDA:228,0,1,4117
BRDA:232,0,0,2282
BRDA:232,0,1,1835
BRDA:236,0,0,232
BRDA:236,0,1,0
BRDA:245,0,0,144
BRDA:245,0,1,88
BRDA:251,0,0,226
BRDA:251,0,1,6
BRDA:253,0,0,6
BRDA:253,0,1,0
BRDA:259,0,0,813
BRDA:259,0,1,0
BRDA:260,0,0,471
BRDA:260,0,1,342
BRDA:260,1,2,232
BRDA:260,1,3,581
BRDA:262,0,0,471
BRDA:262,0,1,0
BRDA:263,0,0,232
BRDA:263,0,1,239
BRDA:272,0,0,31
BRDA:272,0,1,201
BRDA:278,0,0,-
BRDA:278,0,1,-
BRDA:282,0,0,-
BRDA:282,0,1,-
BRDA:290,0,0,12703
BRDA:290,0,1,8960
BRDA:296,0,0,0
BRDA:296,0,1,21663
BRDA:318,0,0,11570
BRDA:318,0,1,7209
BRDA:320,0,0,0
BRDA:320,0,1,11570
BRDA:327,0,0,714
BRDA:327,0,1,18065
BRDA:329,0,0,714
BRDA:329,0,1,0
BRDA:333,0,0,6
BRDA:333,0,1,18773
BRDA:335,0,0,3
BRDA:335,0,1,3
BRDA:341,0,0,5421
BRDA:341,0,1,13358
BRDA:344,0,0,0
BRDA:344,0,1,5421
BRDA:346,0,0,1068
BRDA:346,0,1,17711
BRDA:349,0,0,0
BRDA:349,0,1,1068
BRDA:351,0,0,0
BRDA:351,0,1,18779
BRDA:381,0,0,0
BRDA:381,0,1,15220
BRDA:383,0,0,0
BRDA:383,0,1,15220
BRDA:386,0,0,11250
BRDA:386,0,1,3970
BRDA:386,1,2,0
BRDA:386,1,3,11250
BRDA:389,0,0,11250
BRDA:389,0,1,3970
BRDA:389,1,2,0
BRDA:389,1,3,11250
BRDA:392,0,0,11250
BRDA:392,0,1,3970
BRDA:392,1,2,0
BRDA:392,1,3,15220
BRDA:395,0,0,1
BRDA:395,0,1,15219
BRDA:399,0,0,0
BRDA:399,0,1,15219
BRDA:421,0,0,4
BRDA:421,0,1,240
BRDA:439,0,0,2
BRDA:439,0,1,6
BRDA:442,0,0,0
BRDA:442,0,1,6
BRDA:445,0,0,3
BRDA:445,0,1,3
BRDA:445,1,2,3
BRDA:445,1,3,0
BRDA:445,2,4,3
BRDA:445,2,5,0
BRDA:463,0,0,2
BRDA:463,0,1,422
BRDA:466,0,0,0
BRDA:466,0,1,422
BRDA:469,0,0,0
BRDA:469,0,1,422
BRDA:486,0,0,4
BRDA:486,0,1,56
BRDA:489,0,0,0
BRDA:489,0,1,56
BRDA:492,0,0,0
BRDA:492,0,1,56
BRDA:512,0,0,1
BRDA:512,0,1,13
BRDA:515,0,0,0
BRDA:515,0,1,13
BRDA:518,0,0,1
BRDA:518,0,1,12
BRDA:543,0,0,1
BRDA:543,0,1,1356
BRDA:546,0,0,0
BRDA:546,0,1,1356
BRDA:549,0,0,1
BRDA:549,0,1,1355
BRDA:566,0,0,4
BRDA:566,0,1,432
BRDA:569,0,0,0
BRDA:569,0,1,432
BRDA:590,0,0,4
BRDA:590,0,1,198
BRDA:593,0,0,0
BRDA:593,0,1,198
BRDA:613,0,0,4
BRDA:613,0,1,42
BRDA:616,0,0,0
BRDA:616,0,1,42
BRDA:640,0,0,0
BRDA:640,0,1,1034
BRDA:643,0,0,0
BRDA:643,0,1,1034
BRDA:646,0,0,1
BRDA:646,0,1,1033
BRF:262
BFH:208
LF:523
LH:439
end_of_record
SF:/workspaces/pep10term/dependencies/pepcore/src/libisa/asmb/pep10/tokenizer.hpp
FN:42,_ZN4asmb5pep109tokenizerIN5boost6spirit3lex7lexertl11actor_lexerINS5_5tokenIN9__gnu_cxx17__normal_iteratorIPcNSt7__cxx1112basic_stringIcSt11char_traitsIcESaIcEEEEENS2_3mpl6vectorISG_xN4mpl_2naESL_SL_SL_SL_SL_SL_SL_SL_SL_SL_SL_SL_SL_SL_SL_SL_SL_EENSK_5bool_ILb1EEEmEESH_NS5_7functorISP_NS5_6detail4dataESH_SO_SO_EEEEEC2Ev
FN:67,_ZN4asmb5pep109tokenizerIN5boost6spirit3lex7lexertl11actor_lexerINS5_5tokenIN9__gnu_cxx17__normal_iteratorIPcNSt7__cxx1112basic_stringIcSt11char_traitsIcESaIcEEEEENS2_3mpl6vectorISG_xN4mpl_2naESL_SL_SL_SL_SL_SL_SL_SL_SL_SL_SL_SL_SL_SL_SL_SL_SL_EENSK_5bool_ILb1EEEmEESH_NS5_7functorISP_NS5_6detail4dataESH_SO_SO_EEEEE21convert_token_to_typeESP_
FNDA:337,_ZN4asmb5pep109tokenizerIN5boost6spirit3lex7lexertl11actor_lexerINS5_5tokenIN9__gnu_cxx17__normal_iteratorIPcNSt7__cxx1112basic_stringIcSt11char_traitsIcESaIcEEEEENS2_3mpl6vectorISG_xN4mpl_2naESL_SL_SL_SL_SL_SL_SL_SL_SL_SL_SL_SL_SL_SL_SL_SL_SL_EENSK_5bool_ILb1EEEmEESH_NS5_7functorISP_NS5_6detail4dataESH_SO_SO_EEEEEC2Ev
FNDA:114943,_ZN4asmb5pep109tokenizerIN5boost6spirit3lex7lexertl11actor_lexerINS5_5tokenIN9__gnu_cxx17__normal_iteratorIPcNSt7__cxx1112basic_stringIcSt11char_traitsIcESaIcEEEEENS2_3mpl6vectorISG_xN4mpl_2naESL_SL_SL_SL_SL_SL_SL_SL_SL_SL_SL_SL_SL_SL_SL_SL_SL_EENSK_5bool_ILb1EEEmEESH_NS5_7functorISP_NS5_6detail4dataESH_SO_SO_EEEEE21convert_token_to_typeESP_
FNF:2
FNH:2
DA:42,337
DA:43,337
DA:44,337
DA:45,337
DA:46,337
DA:47,337
DA:48,337
DA:49,337
DA:50,337
DA:51,337
DA:52,337
DA:53,337
DA:54,337
DA:55,337
DA:56,337
DA:57,337
DA:58,337
DA:59,337
DA:60,337
DA:67,114943
DA:68,114943
DA:69,114943
DA:70,114943
DA:71,114943
BRDA:69,0,0,0
BRDA:69,0,1,114943
BRF:2
BFH:1
LF:24
LH:24
end_of_record
SF:/workspaces/pep10term/dependencies/pepcore/src/libisa/components/delta/base.hpp
FN:28,_ZN10components5delta4BaseIthED2Ev
FN:28,_ZN10components5delta4BaseIhtED2Ev
FN:28,_ZN10components5delta4BaseIhbED2Ev
FN:28,_ZN10components5delta4BaseIhhED2Ev
FNDA:197,_ZN10components5delta4BaseIthED2Ev
FNDA:184,_ZN10components5delta4BaseIhtED2Ev
FNDA:184,_ZN10components5delta4BaseIhbED2Ev
FNDA:18,_ZN10components5delta4BaseIhhED2Ev
FNF:1
FNH:1
DA:28,583
BRF:0
BFH:0
LF:1
LH:1
end_of_record
SF:/workspaces/pep10term/dependencies/pepcore/src/libisa/components/delta/base.tpp
FN:5,_ZN10components5delta4BaseIthEC2ERNS_7storage4BaseItLb1EhEE
FN:5,_ZN10components5delta4BaseIhtEC2ERNS_7storage4BaseIhLb1EtEE
FN:5,_ZN10components5delta4BaseIhbEC2ERNS_7storage4BaseIhLb1EbEE
FN:5,_ZN10components5delta4BaseIhhEC2ERNS_7storage4BaseIhLb1EhEE
FNDA:197,_ZN10components5delta4BaseIthEC2ERNS_7storage4BaseItLb1EhEE
FNDA:184,_ZN10components5delta4BaseIhtEC2ERNS_7storage4BaseIhLb1EtEE
FNDA:184,_ZN10components5delta4BaseIhbEC2ERNS_7storage4BaseIhLb1EbEE
FNDA:18,_ZN10components5delta4BaseIhhEC2ERNS_7storage4BaseIhLb1EhEE
FNF:1
FNH:1
DA:5,583
DA:7,583
BRF:0
BFH:0
LF:2
LH:2
end_of_record
SF:/workspaces/pep10term/dependencies/pepcore/src/libisa/components/delta/layered.hpp
FN:16,_ZN10components5delta7LayeredIthED2Ev
FNDA:1,_ZN10components5delta7LayeredIthED2Ev
FNF:1
FNH:1
DA:16,1
BRF:0
BFH:0
LF:1
LH:1
end_of_record
SF:/workspaces/pep10term/dependencies/pepcore/src/libisa/components/delta/layered.tpp
FN:7,_ZN10components5delta7LayeredIthEC2ERNS_7storage7LayeredItLb1EhEE
FN:22,_ZN10components5delta7LayeredIthE14apply_backwardEv
FN:14,_ZN10components5delta7LayeredIthE13apply_forwardEv
FN:30,_ZN10components5delta7LayeredIthE5clearEv
FN:37,_ZN10components5delta7LayeredIthE9add_deltaESt10unique_ptrINS0_4BaseIthEESt14default_deleteIS5_EE
FNDA:1,_ZN10components5delta7LayeredIthEC2ERNS_7storage7LayeredItLb1EhEE
FNDA:1,_ZN10components5delta7LayeredIthE14apply_backwardEv
FNDA:0,_ZN10components5delta7LayeredIthE13apply_forwardEv
FNDA:0,_ZN10components5delta7LayeredIthE5clearEv
FNDA:1,_ZN10components5delta7LayeredIthE9add_deltaESt10unique_ptrINS0_4BaseIthEESt14default_deleteIS5_EE
FNF:5
FNH:3
DA:7,1
DA:9,1
DA:14,0
DA:15,0
DA:16,0
DA:17,0
DA:22,1
DA:23,1
DA:24,1
DA:25,1
DA:30,0
DA:31,0
DA:32,0
DA:37,1
DA:38,1
DA:39,1
BRDA:15,0,0,-
BRDA:15,0,1,-
BRDA:16,0,0,-
BRDA:16,0,1,-
BRDA:23,0,0,0
BRDA:23,0,1,1
BRDA:24,0,0,1
BRDA:24,0,1,1
BRF:8
BFH:3
LF:16
LH:9
end_of_record
SF:/workspaces/pep10term/dependencies/pepcore/src/libisa/components/delta/mmio.hpp
FN:26,_ZN10components5delta5InputIthED2Ev
FN:42,_ZN10components5delta6OutputIthED2Ev
FNDA:4,_ZN10components5delta5InputIthED2Ev
FNDA:4,_ZN10components5delta6OutputIthED2Ev
FNF:2
FNH:2
DA:26,4
DA:42,4
BRF:0
BFH:0
LF:2
LH:2
end_of_record
SF:/workspaces/pep10term/dependencies/pepcore/src/libisa/components/delta/mmio.tpp
FN:7,_ZN10components5delta5InputIthEC2ERNS_7storage5InputItLb1EhEE
FN:21,_ZN10components5delta5InputIthE14apply_backwardEv
FN:14,_ZN10components5delta5InputIthE13apply_forwardEv
FN:28,_ZN10components5delta5InputIthE5clearEv
FN:35,_ZN10components5delta5InputIthE9add_deltaEv
FN:45,_ZN10components5delta6OutputIthEC2ERNS_7storage6OutputItLb1EhEE
FN:59,_ZN10components5delta6OutputIthE14apply_backwardEv
FN:52,_ZN10components5delta6OutputIthE13apply_forwardEv
FN:66,_ZN10components5delta6OutputIthE5clearEv
FN:73,_ZN10components5delta6OutputIthE9add_deltaEv
FNDA:4,_ZN10components5delta5InputIthEC2ERNS_7storage5InputItLb1EhEE
FNDA:1,_ZN10components5delta5InputIthE14apply_backwardEv
FNDA:0,_ZN10components5delta5InputIthE13apply_forwardEv
FNDA:0,_ZN10components5delta5InputIthE5clearEv
FNDA:5,_ZN10components5delta5InputIthE9add_deltaEv
FNDA:4,_ZN10components5delta6OutputIthEC2ERNS_7storage6OutputItLb1EhEE
FNDA:1,_ZN10components5delta6OutputIthE14apply_backwardEv
FNDA:0,_ZN10components5delta6OutputIthE13apply_forwardEv
FNDA:0,_ZN10components5delta6OutputIthE5clearEv
FNDA:4,_ZN10components5delta6OutputIthE9add_deltaEv
FNF:10
FNH:6
DA:7,4
DA:9,4
DA:14,0
DA:15,0
DA:16,0
DA:21,1
DA:22,3
DA:23,1
DA:28,0
DA:29,0
DA:30,0
DA:35,5
DA:36,5
DA:37,5
DA:45,4
DA:47,4
DA:52,0
DA:53,0
DA:54,0
DA:59,1
DA:60,3
DA:61,1
DA:66,0
DA:67,0
DA:68,0
DA:73,4
DA:74,4
DA:75,4
BRDA:15,0,0,-
BRDA:15,0,1,-
BRDA:22,0,0,2
BRDA:22,0,1,1
BRDA:53,0,0,-
BRDA:53,0,1,-
BRDA:60,0,0,2
BRDA:60,0,1,1
BRF:8
BFH:4
LF:28
LH:16
end_of_record
SF:/workspaces/pep10term/dependencies/pepcore/src/libisa/components/delta/vector.hpp
FN:15,_ZN10components5delta6VectorIthED2Ev
FN:15,_ZN10components5delta6VectorIhtED2Ev
FN:15,_ZN10components5delta6VectorIhbED2Ev
FN:15,_ZN10components5delta6VectorIhhED2Ev
FNDA:188,_ZN10components5delta6VectorIthED2Ev
FNDA:184,_ZN10components5delta6VectorIhtED2Ev
FNDA:184,_ZN10components5delta6VectorIhbED2Ev
FNDA:18,_ZN10components5delta6VectorIhhED2Ev
FNF:1
FNH:1
DA:15,574
BRF:0
BFH:0
LF:1
LH:1
end_of_record
SF:/workspaces/pep10term/dependencies/pepcore/src/libisa/components/delta/vector.tpp
FN:7,_ZN10components5delta6VectorIthEC2ERNS_7storage4BaseItLb1EhEE
FN:24,_ZN10components5delta6VectorIthE14apply_backwardEv
FN:14,_ZN10components5delta6VectorIthE13apply_forwardEv
FN:34,_ZN10components5delta6VectorIthE5clearEv
FN:41,_ZN10components5delta6VectorIthE9add_deltaEthh
FN:7,_ZN10components5delta6VectorIhtEC2ERNS_7storage4BaseIhLb1EtEE
FN:24,_ZN10components5delta6VectorIhtE14apply_backwardEv
FN:14,_ZN10components5delta6VectorIhtE13apply_forwardEv
FN:34,_ZN10components5delta6VectorIhtE5clearEv
FN:41,_ZN10components5delta6VectorIhtE9add_deltaEhtt
FN:7,_ZN10components5delta6VectorIhbEC2ERNS_7storage4BaseIhLb1EbEE
FN:24,_ZN10components5delta6VectorIhbE14apply_backwardEv
FN:14,_ZN10components5delta6VectorIhbE13apply_forwardEv
FN:34,_ZN10components5delta6VectorIhbE5clearEv
FN:41,_ZN10components5delta6VectorIhbE9add_deltaEhbb
FN:7,_ZN10components5delta6VectorIhhEC2ERNS_7storage4BaseIhLb1EhEE
FN:24,_ZN10components5delta6VectorIhhE14apply_backwardEv
FN:14,_ZN10components5delta6VectorIhhE13apply_forwardEv
FN:34,_ZN10components5delta6VectorIhhE5clearEv
FN:41,_ZN10components5delta6VectorIhhE9add_deltaEhhh
FNDA:188,_ZN10components5delta6VectorIthEC2ERNS_7storage4BaseItLb1EhEE
FNDA:1,_ZN10components5delta6VectorIthE14apply_backwardEv
FNDA:0,_ZN10components5delta6VectorIthE13apply_forwardEv
FNDA:43318666,_ZN10components5delta6VectorIthE5clearEv
FNDA:127859442,_ZN10components5delta6VectorIthE9add_deltaEthh
FNDA:184,_ZN10components5delta6VectorIhtEC2ERNS_7storage4BaseIhLb1EtEE
FNDA:0,_ZN10components5delta6VectorIhtE14apply_backwardEv
FNDA:0,_ZN10components5delta6VectorIhtE13apply_forwardEv
FNDA:43318666,_ZN10components5delta6VectorIhtE5clearEv
FNDA:230815027,_ZN10components5delta6VectorIhtE9add_deltaEhtt
FNDA:184,_ZN10components5delta6VectorIhbEC2ERNS_7storage4BaseIhLb1EbEE
FNDA:0,_ZN10components5delta6VectorIhbE14apply_backwardEv
FNDA:0,_ZN10components5delta6VectorIhbE13apply_forwardEv
FNDA:43318666,_ZN10components5delta6VectorIhbE5clearEv
FNDA:177862606,_ZN10components5delta6VectorIhbE9add_deltaEhbb
FNDA:18,_ZN10components5delta6VectorIhhEC2ERNS_7storage4BaseIhLb1EhEE
FNDA:0,_ZN10components5delta6VectorIhhE14apply_backwardEv
FNDA:0,_ZN10components5delta6VectorIhhE13apply_forwardEv
FNDA:0,_ZN10components5delta6VectorIhhE5clearEv
FNDA:9,_ZN10components5delta6VectorIhhE9add_deltaEhhh
FNF:5
FNH:4
DA:7,574
DA:9,574
DA:14,0
DA:15,0
DA:18,0
DA:19,0
DA:24,1
DA:25,1
DA:28,1
DA:29,1
DA:34,129955998
DA:35,129955998
DA:36,129955998
DA:41,536537084
DA:42,536537084
DA:43,536537084
DA:44,536537084
BRDA:15,0,0,-
BRDA:15,0,1,-
BRDA:15,1,2,-
BRDA:15,1,3,-
BRDA:15,2,4,-
BRDA:15,2,5,-
BRDA:15,3,6,-
BRDA:15,3,7,-
BRDA:18,0,0,-
BRDA:18,0,1,-
BRDA:18,1,2,-
BRDA:18,1,3,-
BRDA:18,2,4,-
BRDA:18,2,5,-
BRDA:18,3,6,-
BRDA:18,3,7,-
BRDA:25,0,0,0
BRDA:25,0,1,1
BRDA:25,1,2,-
BRDA:25,1,3,-
BRDA:25,2,4,-
BRDA:25,2,5,-
BRDA:25,3,6,-
BRDA:25,3,7,-
BRDA:28,0,0,1
BRDA:28,0,1,1
BRDA:28,1,2,-
BRDA:28,1,3,-
BRDA:28,2,4,-
BRDA:28,2,5,-
BRDA:28,3,6,-
BRDA:28,3,7,-
BRF:8
BFH:3
LF:17
LH:13
end_of_record
SF:/workspaces/pep10term/dependencies/pepcore/src/libisa/components/machine/interace.hpp
FN:63,_ZN10components7machine25MachineProcessorInterfaceIthN3isa5pep1012MemoryVectorEED2Ev
FN:42,_ZN10components7machine17InstructionLockerIthN3isa5pep1012MemoryVectorEEC2ERNS0_25MachineProcessorInterfaceIthS4_EE
FN:52,_ZN10components7machine17InstructionLockerIthN3isa5pep1012MemoryVectorEED2Ev
FN:19,_ZN10components7machine17TransactionLockerIthN3isa5pep1012MemoryVectorEEC2ERNS0_25MachineProcessorInterfaceIthS4_EE
FN:29,_ZN10components7machine17TransactionLockerIthN3isa5pep1012MemoryVectorEED2Ev
FNDA:184,_ZN10components7machine25MachineProcessorInterfaceIthN3isa5pep1012MemoryVectorEED2Ev
FNDA:43318798,_ZN10components7machine17InstructionLockerIthN3isa5pep1012MemoryVectorEEC2ERNS0_25MachineProcessorInterfaceIthS4_EE
FNDA:43318798,_ZN10components7machine17InstructionLockerIthN3isa5pep1012MemoryVectorEED2Ev
FNDA:86572170,_ZN10components7machine17TransactionLockerIthN3isa5pep1012MemoryVectorEEC2ERNS0_25MachineProcessorInterfaceIthS4_EE
FNDA:86572170,_ZN10components7machine17TransactionLockerIthN3isa5pep1012MemoryVectorEED2Ev
FNF:5
FNH:5
DA:19,86572170
DA:20,86572170
DA:21,86572170
DA:29,86572170
DA:30,86572170
DA:31,86572170
DA:42,43318798
DA:43,43318798
DA:44,43318798
DA:52,43318798
DA:53,43318798
DA:54,43318798
DA:63,184
BRF:0
BFH:0
LF:13
LH:13
end_of_record
SF:/workspaces/pep10term/dependencies/pepcore/src/libisa/components/machine/interface.tpp
FN:11,_ZN10components7machine25MachineProcessorInterfaceIthN3isa5pep1012MemoryVectorEE24acquire_instruction_lockEv
FN:4,_ZN10components7machine25MachineProcessorInterfaceIthN3isa5pep1012MemoryVectorEE24acquire_transaction_lockEv
FNDA:43318798,_ZN10components7machine25MachineProcessorInterfaceIthN3isa5pep1012MemoryVectorEE24acquire_instruction_lockEv
FNDA:86572170,_ZN10components7machine25MachineProcessorInterfaceIthN3isa5pep1012MemoryVectorEE24acquire_transaction_lockEv
FNF:2
FNH:2
DA:4,86572170
DA:5,86572170
DA:6,86572170
DA:11,43318798
DA:12,43318798
DA:13,43318798
BRF:0
BFH:0
LF:6
LH:6
end_of_record
SF:/workspaces/pep10term/dependencies/pepcore/src/libisa/components/machine/processor_model.hpp
FN:36,_ZN10components7machine14ProcessorModelIththbLb1EED2Ev
FNDA:184,_ZN10components7machine14ProcessorModelIththbLb1EED2Ev
FNF:1
FNH:1
DA:36,184
BRF:0
BFH:0
LF:1
LH:1
end_of_record
SF:/workspaces/pep10term/dependencies/pepcore/src/libisa/components/storage/base.hpp
FN:22,_ZN10components7storage4BaseItLb1EhED2Ev
FN:22,_ZN10components7storage4BaseIhLb1EtED2Ev
FN:22,_ZN10components7storage4BaseIhLb1EbED2Ev
FN:22,_ZN10components7storage4BaseIhLb1EhED2Ev
FNDA:195,_ZN10components7storage4BaseItLb1EhED2Ev
FNDA:184,_ZN10components7storage4BaseIhLb1EtED2Ev
FNDA:184,_ZN10components7storage4BaseIhLb1EbED2Ev
FNDA:18,_ZN10components7storage4BaseIhLb1EhED2Ev
FNF:1
FNH:1
DA:22,581
BRF:0
BFH:0
LF:1
LH:1
end_of_record
SF:/workspaces/pep10term/dependencies/pepcore/src/libisa/components/storage/base.tpp
FN:5,_ZN10components7storage4BaseItLb1EhEC2Et
FN:12,_ZNK10components7storage4BaseItLb1EhE10max_offsetEv
FN:5,_ZN10components7storage4BaseIhLb1EtEC2Eh
FN:12,_ZNK10components7storage4BaseIhLb1EtE10max_offsetEv
FN:5,_ZN10components7storage4BaseIhLb1EbEC2Eh
FN:12,_ZNK10components7storage4BaseIhLb1EbE10max_offsetEv
FN:5,_ZN10components7storage4BaseIhLb1EhEC2Eh
FN:12,_ZNK10components7storage4BaseIhLb1EhE10max_offsetEv
FNDA:195,_ZN10components7storage4BaseItLb1EhEC2Et
FNDA:119994941,_ZNK10components7storage4BaseItLb1EhE10max_offsetEv
FNDA:184,_ZN10components7storage4BaseIhLb1EtEC2Eh
FNDA:0,_ZNK10components7storage4BaseIhLb1EtE10max_offsetEv
FNDA:184,_ZN10components7storage4BaseIhLb1EbEC2Eh
FNDA:0,_ZNK10components7storage4BaseIhLb1EbE10max_offsetEv
FNDA:18,_ZN10components7storage4BaseIhLb1EhEC2Eh
FNDA:1,_ZNK10components7storage4BaseIhLb1EhE10max_offsetEv
FNF:2
FNH:2
DA:5,581
DA:7,581
DA:12,119994942
DA:13,119994942
DA:14,119994942
BRF:0
BFH:0
LF:5
LH:5
end_of_record
SF:/workspaces/pep10term/dependencies/pepcore/src/libisa/components/storage/block.hpp
FN:24,_ZN10components7storage5BlockItLb1EhED2Ev
FN:24,_ZN10components7storage5BlockIhLb1EtED2Ev
FN:24,_ZN10components7storage5BlockIhLb1EbED2Ev
FN:24,_ZN10components7storage5BlockIhLb1EhED2Ev
FNDA:187,_ZN10components7storage5BlockItLb1EhED2Ev
FNDA:184,_ZN10components7storage5BlockIhLb1EtED2Ev
FNDA:184,_ZN10components7storage5BlockIhLb1EbED2Ev
FNDA:6,_ZN10components7storage5BlockIhLb1EhED2Ev
FNF:1
FNH:1
DA:24,561
BRF:0
BFH:0
LF:1
LH:1
end_of_record
SF:/workspaces/pep10term/dependencies/pepcore/src/libisa/components/storage/block.tpp
FN:12,_ZN10components7storage5BlockItLb1EhEC2Eth
FN:29,_ZN10components7storage5BlockItLb1EhE5clearEh
FN:36,_ZNK10components7storage5BlockItLb1EhE3getEt
FN:44,_ZN10components7storage5BlockItLb1EhE3setEth
FN:53,_ZNK10components7storage5BlockItLb1EhE4readEt
FN:61,_ZN10components7storage5BlockItLb1EhE5writeEth
FN:73,_ZNK10components7storage5BlockItLb1EhE14deltas_enabledEv
FN:80,_ZN10components7storage5BlockItLb1EhE11clear_deltaEv
FN:93,_ZN10components7storage5BlockItLb1EhE10take_deltaEv
FN:109,_ZN10components7storage5BlockItLb1EhE6resizeEt
FN:12,_ZN10components7storage5BlockIhLb1EtEC2Eht
FN:29,_ZN10components7storage5BlockIhLb1EtE5clearEt
FN:36,_ZNK10components7storage5BlockIhLb1EtE3getEh
FN:44,_ZN10components7storage5BlockIhLb1EtE3setEht
FN:53,_ZNK10components7storage5BlockIhLb1EtE4readEh
FN:61,_ZN10components7storage5BlockIhLb1EtE5writeEht
FN:73,_ZNK10components7storage5BlockIhLb1EtE14deltas_enabledEv
FN:80,_ZN10components7storage5BlockIhLb1EtE11clear_deltaEv
FN:93,_ZN10components7storage5BlockIhLb1EtE10take_deltaEv
FN:109,_ZN10components7storage5BlockIhLb1EtE6resizeEh
FN:12,_ZN10components7storage5BlockIhLb1EbEC2Ehb
FN:29,_ZN10components7storage5BlockIhLb1EbE5clearEb
FN:36,_ZNK10components7storage5BlockIhLb1EbE3getEh
FN:44,_ZN10components7storage5BlockIhLb1EbE3setEhb
FN:53,_ZNK10components7storage5BlockIhLb1EbE4readEh
FN:61,_ZN10components7storage5BlockIhLb1EbE5writeEhb
FN:73,_ZNK10components7storage5BlockIhLb1EbE14deltas_enabledEv
FN:80,_ZN10components7storage5BlockIhLb1EbE11clear_deltaEv
FN:93,_ZN10components7storage5BlockIhLb1EbE10take_deltaEv
FN:109,_ZN10components7storage5BlockIhLb1EbE6resizeEh
FN:12,_ZN10components7storage5BlockIhLb1EhEC2Ehh
FN:29,_ZN10components7storage5BlockIhLb1EhE5clearEh
FN:36,_ZNK10components7storage5BlockIhLb1EhE3getEh
FN:44,_ZN10components7storage5BlockIhLb1EhE3setEhh
FN:53,_ZNK10components7storage5BlockIhLb1EhE4readEh
FN:61,_ZN10components7storage5BlockIhLb1EhE5writeEhh
FN:73,_ZNK10components7storage5BlockIhLb1EhE14deltas_enabledEv
FN:80,_ZN10components7storage5BlockIhLb1EhE11clear_deltaEv
FN:93,_ZN10components7storage5BlockIhLb1EhE10take_deltaEv
FN:109,_ZN10components7storage5BlockIhLb1EhE6resizeEh
FNDA:187,_ZN10components7storage5BlockItLb1EhEC2Eth
FNDA:43318666,_ZN10components7storage5BlockItLb1EhE5clearEh
FNDA:255718903,_ZNK10components7storage5BlockItLb1EhE3getEt
FNDA:127859443,_ZN10components7storage5BlockItLb1EhE3setEth
FNDA:119994991,_ZNK10components7storage5BlockItLb1EhE4readEt
FNDA:127859442,_ZN10components7storage5BlockItLb1EhE5writeEth
FNDA:0,_ZNK10components7storage5BlockItLb1EhE14deltas_enabledEv
FNDA:43318666,_ZN10components7storage5BlockItLb1EhE11clear_deltaEv
FNDA:1,_ZN10components7storage5BlockItLb1EhE10take_deltaEv
FNDA:0,_ZN10components7storage5BlockItLb1EhE6resizeEt
FNDA:184,_ZN10components7storage5BlockIhLb1EtEC2Eht
FNDA:43318666,_ZN10components7storage5BlockIhLb1EtE5clearEt
FNDA:716168835,_ZNK10components7storage5BlockIhLb1EtE3getEh
FNDA:230815027,_ZN10components7storage5BlockIhLb1EtE3setEht
FNDA:485353808,_ZNK10components7storage5BlockIhLb1EtE4readEh
FNDA:230815027,_ZN10components7storage5BlockIhLb1EtE5writeEht
FNDA:0,_ZNK10components7storage5BlockIhLb1EtE14deltas_enabledEv
FNDA:43318666,_ZN10components7storage5BlockIhLb1EtE11clear_deltaEv
FNDA:0,_ZN10components7storage5BlockIhLb1EtE10take_deltaEv
FNDA:0,_ZN10components7storage5BlockIhLb1EtE6resizeEh
FNDA:184,_ZN10components7storage5BlockIhLb1EbEC2Ehb
FNDA:43318666,_ZN10components7storage5BlockIhLb1EbE5clearEb
FNDA:374337240,_ZNK10components7storage5BlockIhLb1EbE3getEh
FNDA:177862606,_ZN10components7storage5BlockIhLb1EbE3setEhb
FNDA:196474634,_ZNK10components7storage5BlockIhLb1EbE4readEh
FNDA:177862606,_ZN10components7storage5BlockIhLb1EbE5writeEhb
FNDA:0,_ZNK10components7storage5BlockIhLb1EbE14deltas_enabledEv
FNDA:43318666,_ZN10components7storage5BlockIhLb1EbE11clear_deltaEv
FNDA:0,_ZN10components7storage5BlockIhLb1EbE10take_deltaEv
FNDA:0,_ZN10components7storage5BlockIhLb1EbE6resizeEh
FNDA:6,_ZN10components7storage5BlockIhLb1EhEC2Ehh
FNDA:13,_ZN10components7storage5BlockIhLb1EhE5clearEh
FNDA:35,_ZNK10components7storage5BlockIhLb1EhE3getEh
FNDA:9,_ZN10components7storage5BlockIhLb1EhE3setEhh
FNDA:26,_ZNK10components7storage5BlockIhLb1EhE4readEh
FNDA:10,_ZN10components7storage5BlockIhLb1EhE5writeEhh
FNDA:0,_ZNK10components7storage5BlockIhLb1EhE14deltas_enabledEv
FNDA:0,_ZN10components7storage5BlockIhLb1EhE11clear_deltaEv
FNDA:0,_ZN10components7storage5BlockIhLb1EhE10take_deltaEv
FNDA:12,_ZN10components7storage5BlockIhLb1EhE6resizeEh
FNF:10
FNH:9
DA:12,561
DA:14,561
DA:29,129956011
DA:30,129956011
DA:31,129956011
DA:36,1346225013
DA:37,1346225013
DA:38,1346225012
DA:39,1346225013
DA:44,536537085
DA:45,536537085
DA:46,536537085
DA:47,536537085
DA:48,536537085
DA:53,801823459
DA:55,801823459
DA:56,801823459
DA:61,536537085
DA:62,536537085
DA:64,536537085
DA:65,536537084
DA:66,536537084
DA:67,536537084
DA:68,536537085
DA:73,0
DA:74,0
DA:75,0
DA:80,129955998
DA:81,129955998
DA:82,129955998
DA:83,129955998
DA:84,129955998
DA:85,129955998
DA:86,129955998
DA:87,129955998
DA:88,129955998
DA:93,1
DA:94,1
DA:96,1
DA:97,1
DA:98,1
DA:99,1
DA:100,1
DA:101,1
DA:102,1
DA:103,1
DA:104,1
DA:109,12
DA:110,12
DA:111,12
DA:112,12
DA:113,12
DA:114,12
BRDA:37,0,0,0
BRDA:37,0,1,255718903
BRDA:37,1,2,1
BRDA:37,1,3,34
BRDA:37,2,4,0
BRDA:37,2,5,374337240
BRDA:37,3,6,0
BRDA:37,3,7,716168835
BRDA:45,0,0,0
BRDA:45,0,1,127859443
BRDA:45,1,2,0
BRDA:45,1,3,9
BRDA:45,2,4,0
BRDA:45,2,5,177862606
BRDA:45,3,6,0
BRDA:45,3,7,230815027
BRDA:64,0,0,0
BRDA:64,0,1,177862606
BRDA:64,1,2,1
BRDA:64,1,3,9
BRDA:64,2,4,0
BRDA:64,2,5,127859442
BRDA:64,3,6,0
BRDA:64,3,7,230815027
BRF:6
BFH:5
LF:53
LH:50
end_of_record
SF:/workspaces/pep10term/dependencies/pepcore/src/libisa/components/storage/helper.tpp
FN:10,_ZN10components7storage15oob_read_helperItEE11StorageErrcT_
FN:17,_ZN10components7storage16oob_write_helperIthEE11StorageErrcT_T0_
FN:10,_ZN10components7storage15oob_read_helperIhEE11StorageErrcT_
FN:17,_ZN10components7storage16oob_write_helperIhtEE11StorageErrcT_T0_
FN:17,_ZN10components7storage16oob_write_helperIhbEE11StorageErrcT_T0_
FN:17,_ZN10components7storage16oob_write_helperIhhEE11StorageErrcT_T0_
FNDA:2,_ZN10components7storage15oob_read_helperItEE11StorageErrcT_
FNDA:0,_ZN10components7storage16oob_write_helperIthEE11StorageErrcT_T0_
FNDA:1,_ZN10components7storage15oob_read_helperIhEE11StorageErrcT_
FNDA:0,_ZN10components7storage16oob_write_helperIhtEE11StorageErrcT_T0_
FNDA:0,_ZN10components7storage16oob_write_helperIhbEE11StorageErrcT_T0_
FNDA:1,_ZN10components7storage16oob_write_helperIhhEE11StorageErrcT_T0_
FNF:2
FNH:2
DA:10,3
DA:11,3
DA:12,3
DA:17,1
DA:18,1
DA:19,1
BRF:0
BFH:0
LF:6
LH:6
end_of_record
SF:/workspaces/pep10term/dependencies/pepcore/src/libisa/components/storage/layered.hpp
FN:34,_ZN10components7storage7LayeredItLb1EhED2Ev
FNDA:2,_ZN10components7storage7LayeredItLb1EhED2Ev
FNF:1
FNH:1
DA:34,2
BRF:0
BFH:0
LF:1
LH:1
end_of_record
SF:/workspaces/pep10term/dependencies/pepcore/src/libisa/components/storage/layered.tpp
FN:12,_ZN10components7storage7LayeredItLb1EhEC2EthNS2_8ReadMissENS2_9WriteMissE
FN:41,_ZN10components7storage7LayeredItLb1EhE5clearEh
FN:48,_ZNK10components7storage7LayeredItLb1EhE3getEt
FN:67,_ZN10components7storage7LayeredItLb1EhE3setEth
FN:121,_ZNK10components7storage7LayeredItLb1EhE14deltas_enabledEv
FN:128,_ZN10components7storage7LayeredItLb1EhE11clear_deltaEv
FN:159,_ZN10components7storage7LayeredItLb1EhE6resizeEt
FN:30,_ZN10components7storage7LayeredItLb1EhE14append_storageEtSt10shared_ptrINS0_4BaseItLb1EhEEE
FN:103,_ZN10components7storage7LayeredItLb1EhE5writeEth
FN:85,_ZNK10components7storage7LayeredItLb1EhE4readEt
FN:144,_ZN10components7storage7LayeredItLb1EhE10take_deltaEv
FNDA:2,_ZN10components7storage7LayeredItLb1EhEC2EthNS2_8ReadMissENS2_9WriteMissE
FNDA:0,_ZN10components7storage7LayeredItLb1EhE5clearEh
FNDA:0,_ZNK10components7storage7LayeredItLb1EhE3getEt
FNDA:0,_ZN10components7storage7LayeredItLb1EhE3setEth
FNDA:0,_ZNK10components7storage7LayeredItLb1EhE14deltas_enabledEv
FNDA:0,_ZN10components7storage7LayeredItLb1EhE11clear_deltaEv
FNDA:0,_ZN10components7storage7LayeredItLb1EhE6resizeEt
FNDA:3,_ZN10components7storage7LayeredItLb1EhE14append_storageEtSt10shared_ptrINS0_4BaseItLb1EhEEE
FNDA:3,_ZN10components7storage7LayeredItLb1EhE5writeEth
FNDA:6,_ZNK10components7storage7LayeredItLb1EhE4readEt
FNDA:1,_ZN10components7storage7LayeredItLb1EhE10take_deltaEv
FNF:11
FNH:5
DA:12,2
DA:14,2
DA:30,3
DA:31,3
DA:32,3
DA:33,3
DA:34,3
DA:36,3
DA:41,0
DA:42,0
DA:43,0
DA:48,0
DA:50,0
DA:51,0
DA:52,0
DA:53,0
DA:54,0
DA:55,0
DA:56,0
DA:57,0
DA:58,0
DA:59,0
DA:60,0
DA:61,0
DA:62,0
DA:67,0
DA:68,0
DA:69,0
DA:70,0
DA:71,0
DA:72,0
DA:73,0
DA:74,0
DA:75,0
DA:76,0
DA:77,0
DA:78,0
DA:79,0
DA:80,0
DA:85,6
DA:86,6
DA:87,6
DA:88,6
DA:89,6
DA:90,3
DA:91,6
DA:92,6
DA:93,3
DA:94,3
DA:95,0
DA:96,3
DA:97,3
DA:98,3
DA:103,3
DA:104,3
DA:105,3
DA:106,3
DA:107,3
DA:108,2
DA:109,3
DA:110,3
DA:111,1
DA:112,1
DA:113,0
DA:114,1
DA:115,1
DA:116,1
DA:121,0
DA:122,0
DA:123,0
DA:128,0
DA:129,0
DA:130,0
DA:132,0
DA:133,0
DA:134,0
DA:135,0
DA:136,0
DA:137,0
DA:138,0
DA:139,0
DA:144,1
DA:145,1
DA:146,1
DA:148,1
DA:149,1
DA:150,1
DA:151,1
DA:152,1
DA:153,1
DA:154,1
DA:159,0
DA:160,0
DA:161,0
DA:162,0
DA:163,0
DA:165,0
DA:166,0
DA:167,0
BRDA:31,0,0,0
BRDA:31,0,1,3
BRDA:42,0,0,-
BRDA:42,0,1,-
BRDA:50,0,0,-
BRDA:50,0,1,-
BRDA:52,0,0,-
BRDA:52,0,1,-
BRDA:53,0,0,-
BRDA:53,0,1,-
BRDA:53,1,2,-
BRDA:53,1,3,-
BRDA:57,0,0,-
BRDA:57,0,1,-
BRDA:59,0,0,-
BRDA:59,0,1,-
BRDA:60,0,0,-
BRDA:60,0,1,-
BRDA:68,0,0,-
BRDA:68,0,1,-
BRDA:70,0,0,-
BRDA:70,0,1,-
BRDA:71,0,0,-
BRDA:71,0,1,-
BRDA:71,1,2,-
BRDA:71,1,3,-
BRDA:75,0,0,-
BRDA:75,0,1,-
BRDA:77,0,0,-
BRDA:77,0,1,-
BRDA:78,0,0,-
BRDA:78,0,1,-
BRDA:86,0,0,0
BRDA:86,0,1,6
BRDA:88,0,0,6
BRDA:88,0,1,3
BRDA:89,0,0,4
BRDA:89,0,1,2
BRDA:89,1,2,3
BRDA:89,1,3,1
BRDA:93,0,0,0
BRDA:93,0,1,3
BRDA:95,0,0,0
BRDA:95,0,1,3
BRDA:96,0,0,3
BRDA:96,0,1,0
BRDA:104,0,0,0
BRDA:104,0,1,3
BRDA:106,0,0,3
BRDA:106,0,1,1
BRDA:107,0,0,2
BRDA:107,0,1,1
BRDA:107,1,2,2
BRDA:107,1,3,0
BRDA:111,0,0,0
BRDA:111,0,1,1
BRDA:113,0,0,0
BRDA:113,0,1,1
BRDA:114,0,0,1
BRDA:114,0,1,0
BRDA:130,0,0,-
BRDA:130,0,1,-
BRDA:148,0,0,1
BRDA:148,0,1,1
BRDA:161,0,0,-
BRDA:161,0,1,-
BRDA:162,0,0,-
BRDA:162,0,1,-
BRF:68
BFH:22
LF:99
LH:44
end_of_record
SF:/workspaces/pep10term/dependencies/pepcore/src/libisa/components/storage/map.tpp
FN:10,_ZN10components7storage3MapIhLb1EhEC2Ehh
FN:26,_ZN10components7storage3MapIhLb1EhE5clearEh
FN:34,_ZNK10components7storage3MapIhLb1EhE3getEh
FN:43,_ZN10components7storage3MapIhLb1EhE3setEhh
FN:52,_ZNK10components7storage3MapIhLb1EhE4readEh
FN:60,_ZN10components7storage3MapIhLb1EhE5writeEhh
FN:72,_ZNK10components7storage3MapIhLb1EhE14deltas_enabledEv
FN:79,_ZN10components7storage3MapIhLb1EhE11clear_deltaEv
FN:92,_ZN10components7storage3MapIhLb1EhE10take_deltaEv
FN:108,_ZN10components7storage3MapIhLb1EhE6resizeEh
FNDA:6,_ZN10components7storage3MapIhLb1EhEC2Ehh
FNDA:12,_ZN10components7storage3MapIhLb1EhE5clearEh
FNDA:0,_ZNK10components7storage3MapIhLb1EhE3getEh
FNDA:0,_ZN10components7storage3MapIhLb1EhE3setEhh
FNDA:0,_ZNK10components7storage3MapIhLb1EhE4readEh
FNDA:0,_ZN10components7storage3MapIhLb1EhE5writeEhh
FNDA:0,_ZNK10components7storage3MapIhLb1EhE14deltas_enabledEv
FNDA:0,_ZN10components7storage3MapIhLb1EhE11clear_deltaEv
FNDA:0,_ZN10components7storage3MapIhLb1EhE10take_deltaEv
FNDA:12,_ZN10components7storage3MapIhLb1EhE6resizeEh
FNF:10
FNH:3
DA:10,6
DA:12,6
DA:26,12
DA:27,12
DA:28,12
DA:29,12
DA:34,0
DA:35,0
DA:36,0
DA:37,0
DA:38,0
DA:43,0
DA:44,0
DA:45,0
DA:46,0
DA:47,0
DA:52,0
DA:54,0
DA:55,0
DA:60,0
DA:61,0
DA:63,0
DA:64,0
DA:65,0
DA:66,0
DA:67,0
DA:72,0
DA:73,0
DA:74,0
DA:79,0
DA:80,0
DA:81,0
DA:82,0
DA:83,0
DA:84,0
DA:85,0
DA:86,0
DA:87,0
DA:92,0
DA:93,0
DA:95,0
DA:96,0
DA:97,0
DA:98,0
DA:99,0
DA:100,0
DA:101,0
DA:102,0
DA:103,0
DA:108,12
DA:109,12
DA:110,12
DA:111,12
DA:112,12
BRDA:35,0,0,-
BRDA:35,0,1,-
BRDA:36,0,0,-
BRDA:36,0,1,-
BRDA:44,0,0,-
BRDA:44,0,1,-
BRDA:63,0,0,-
BRDA:63,0,1,-
BRF:8
BFH:0
LF:54
LH:11
end_of_record
SF:/workspaces/pep10term/dependencies/pepcore/src/libisa/components/storage/mmio.hpp
FN:20,_ZN10components7storage5InputItLb1EhED2Ev
FN:63,_ZN10components7storage6OutputItLb1EhED2Ev
FNDA:3,_ZN10components7storage5InputItLb1EhED2Ev
FNDA:3,_ZN10components7storage6OutputItLb1EhED2Ev
FNF:2
FNH:2
DA:20,3
DA:63,3
BRF:0
BFH:0
LF:2
LH:2
end_of_record
SF:/workspaces/pep10term/dependencies/pepcore/src/libisa/components/storage/mmio.tpp
FN:13,_ZN10components7storage5InputItLb1EhEC2Eh
FN:30,_ZN10components7storage5InputItLb1EhE5clearEh
FN:48,_ZN10components7storage5InputItLb1EhE3setEth
FN:70,_ZN10components7storage5InputItLb1EhE5writeEth
FN:91,_ZN10components7storage5InputItLb1EhE11clear_deltaEv
FN:120,_ZN10components7storage5InputItLb1EhE6resizeEt
FN:55,_ZNK10components7storage5InputItLb1EhE4readEt
FN:84,_ZNK10components7storage5InputItLb1EhE14deltas_enabledEv
FN:77,_ZN10components7storage5InputItLb1EhE8endpointEv
FN:39,_ZNK10components7storage5InputItLb1EhE3getEt
FN:104,_ZN10components7storage5InputItLb1EhE10take_deltaEv
FN:134,_ZN10components7storage6OutputItLb1EhEC2Eh
FN:151,_ZN10components7storage6OutputItLb1EhE5clearEh
FN:160,_ZNK10components7storage6OutputItLb1EhE3getEt
FN:170,_ZN10components7storage6OutputItLb1EhE3setEth
FN:214,_ZN10components7storage6OutputItLb1EhE11clear_deltaEv
FN:243,_ZN10components7storage6OutputItLb1EhE6resizeEt
FN:179,_ZNK10components7storage6OutputItLb1EhE4readEt
FN:207,_ZNK10components7storage6OutputItLb1EhE14deltas_enabledEv
FN:200,_ZN10components7storage6OutputItLb1EhE8endpointEv
FN:186,_ZN10components7storage6OutputItLb1EhE5writeEth
FN:227,_ZN10components7storage6OutputItLb1EhE10take_deltaEv
FNDA:3,_ZN10components7storage5InputItLb1EhEC2Eh
FNDA:0,_ZN10components7storage5InputItLb1EhE5clearEh
FNDA:0,_ZN10components7storage5InputItLb1EhE3setEth
FNDA:0,_ZN10components7storage5InputItLb1EhE5writeEth
FNDA:0,_ZN10components7storage5InputItLb1EhE11clear_deltaEv
FNDA:0,_ZN10components7storage5InputItLb1EhE6resizeEt
FNDA:6,_ZNK10components7storage5InputItLb1EhE4readEt
FNDA:1,_ZNK10components7storage5InputItLb1EhE14deltas_enabledEv
FNDA:2,_ZN10components7storage5InputItLb1EhE8endpointEv
FNDA:2,_ZNK10components7storage5InputItLb1EhE3getEt
FNDA:1,_ZN10components7storage5InputItLb1EhE10take_deltaEv
FNDA:3,_ZN10components7storage6OutputItLb1EhEC2Eh
FNDA:0,_ZN10components7storage6OutputItLb1EhE5clearEh
FNDA:1,_ZNK10components7storage6OutputItLb1EhE3getEt
FNDA:0,_ZN10components7storage6OutputItLb1EhE3setEth
FNDA:0,_ZN10components7storage6OutputItLb1EhE11clear_deltaEv
FNDA:0,_ZN10components7storage6OutputItLb1EhE6resizeEt
FNDA:1,_ZNK10components7storage6OutputItLb1EhE4readEt
FNDA:1,_ZNK10components7storage6OutputItLb1EhE14deltas_enabledEv
FNDA:2,_ZN10components7storage6OutputItLb1EhE8endpointEv
FNDA:4,_ZN10components7storage6OutputItLb1EhE5writeEth
FNDA:1,_ZN10components7storage6OutputItLb1EhE10take_deltaEv
FNF:22
FNH:13
DA:13,3
DA:15,3
DA:30,0
DA:31,0
DA:33,0
DA:34,0
DA:39,2
DA:40,2
DA:42,2
DA:43,2
DA:48,0
DA:49,0
DA:50,0
DA:55,6
DA:56,6
DA:57,5
DA:58,5
DA:59,5
DA:61,5
DA:62,5
DA:64,5
DA:65,5
DA:70,0
DA:71,0
DA:72,0
DA:77,2
DA:78,2
DA:79,2
DA:84,1
DA:85,1
DA:86,1
DA:91,0
DA:92,0
DA:93,0
DA:94,0
DA:95,0
DA:96,0
DA:97,0
DA:98,0
DA:99,0
DA:104,1
DA:105,1
DA:107,1
DA:108,1
DA:109,1
DA:110,1
DA:111,1
DA:112,1
DA:113,1
DA:114,1
DA:115,1
DA:120,0
DA:121,0
DA:122,0
DA:134,3
DA:136,3
DA:151,0
DA:152,0
DA:154,0
DA:155,0
DA:160,1
DA:161,1
DA:163,0
DA:164,0
DA:165,0
DA:170,0
DA:171,0
DA:172,0
DA:173,0
DA:174,0
DA:179,1
DA:180,1
DA:181,1
DA:186,4
DA:187,4
DA:188,4
DA:189,4
DA:190,4
DA:192,4
DA:193,4
DA:194,4
DA:195,4
DA:200,2
DA:201,2
DA:202,2
DA:207,1
DA:208,1
DA:209,1
DA:214,0
DA:215,0
DA:216,0
DA:217,0
DA:218,0
DA:219,0
DA:220,0
DA:221,0
DA:222,0
DA:227,1
DA:228,1
DA:230,1
DA:231,1
DA:232,1
DA:233,1
DA:234,1
DA:235,1
DA:236,1
DA:237,1
DA:238,1
DA:243,0
DA:244,0
DA:245,0
BRDA:40,0,0,0
BRDA:40,0,1,2
BRDA:56,0,0,1
BRDA:56,0,1,5
BRDA:62,0,0,0
BRDA:62,0,1,5
BRDA:161,0,0,1
BRDA:161,0,1,0
BRDA:163,0,0,-
BRDA:163,0,1,-
BRDA:171,0,0,-
BRDA:171,0,1,-
BRDA:187,0,0,0
BRDA:187,0,1,4
BRF:14
BFH:6
LF:111
LH:65
end_of_record
SF:/workspaces/pep10term/dependencies/pepcore/src/libisa/components/storage/pubsub.tpp
FN:73,_ZN10components7storage7ChannelIthEC2Eh
FN:9,_ZN10components7storage7ChannelIthE5EventC2EhtbSt10shared_ptrIS3_Em
FN:81,_ZN10components7storage7ChannelIthE12new_endpointEv
FN:16,_ZN10components7storage7ChannelIthE8EndpointC2ESt10shared_ptrIKNS2_5EventEEtS4_IS2_E
FN:47,_ZN10components7storage7ChannelIthE8Endpoint6unreadEv
FN:160,_ZNK10components7storage7ChannelIthE14previous_eventESt10shared_ptrIKNS2_5EventEE
FN:28,_ZNK10components7storage7ChannelIthE8Endpoint10next_valueEv
FN:138,_ZNK10components7storage7ChannelIthE10next_eventESt10shared_ptrIKNS2_5EventEE
FN:192,_ZN10components7storage7ChannelIthE5clearEh
FN:98,_ZN10components7storage7ChannelIthE12revert_eventEtm
FN:205,_ZN10components7storage7ChannelIthE16mutable_event_atEm
FN:40,_ZN10components7storage7ChannelIthE8Endpoint12append_valueEh
FN:88,_ZN10components7storage7ChannelIthE12append_eventEth
FN:21,_ZNK10components7storage7ChannelIthE8Endpoint13current_valueEv
FN:59,_ZN10components7storage7ChannelIthE8Endpoint7unwriteEv
FN:73,_ZN10components7storage7ChannelIhhEC2Eh
FN:9,_ZN10components7storage7ChannelIhhE5EventC2EhtbSt10shared_ptrIS3_Em
FN:81,_ZN10components7storage7ChannelIhhE12new_endpointEv
FN:16,_ZN10components7storage7ChannelIhhE8EndpointC2ESt10shared_ptrIKNS2_5EventEEtS4_IS2_E
FN:40,_ZN10components7storage7ChannelIhhE8Endpoint12append_valueEh
FN:88,_ZN10components7storage7ChannelIhhE12append_eventEth
FN:28,_ZNK10components7storage7ChannelIhhE8Endpoint10next_valueEv
FN:138,_ZNK10components7storage7ChannelIhhE10next_eventESt10shared_ptrIKNS2_5EventEE
FN:59,_ZN10components7storage7ChannelIhhE8Endpoint7unwriteEv
FN:98,_ZN10components7storage7ChannelIhhE12revert_eventEtm
FN:205,_ZN10components7storage7ChannelIhhE16mutable_event_atEm
FN:47,_ZN10components7storage7ChannelIhhE8Endpoint6unreadEv
FN:160,_ZNK10components7storage7ChannelIhhE14previous_eventESt10shared_ptrIKNS2_5EventEE
FNDA:6,_ZN10components7storage7ChannelIthEC2Eh
FNDA:14,_ZN10components7storage7ChannelIthE5EventC2EhtbSt10shared_ptrIS3_Em
FNDA:10,_ZN10components7storage7ChannelIthE12new_endpointEv
FNDA:10,_ZN10components7storage7ChannelIthE8EndpointC2ESt10shared_ptrIKNS2_5EventEEtS4_IS2_E
FNDA:2,_ZN10components7storage7ChannelIthE8Endpoint6unreadEv
FNDA:2,_ZNK10components7storage7ChannelIthE14previous_eventESt10shared_ptrIKNS2_5EventEE
FNDA:10,_ZNK10components7storage7ChannelIthE8Endpoint10next_valueEv
FNDA:10,_ZNK10components7storage7ChannelIthE10next_eventESt10shared_ptrIKNS2_5EventEE
FNDA:0,_ZN10components7storage7ChannelIthE5clearEh
FNDA:2,_ZN10components7storage7ChannelIthE12revert_eventEtm
FNDA:2,_ZN10components7storage7ChannelIthE16mutable_event_atEm
FNDA:8,_ZN10components7storage7ChannelIthE8Endpoint12append_valueEh
FNDA:8,_ZN10components7storage7ChannelIthE12append_eventEth
FNDA:2,_ZNK10components7storage7ChannelIthE8Endpoint13current_valueEv
FNDA:2,_ZN10components7storage7ChannelIthE8Endpoint7unwriteEv
FNDA:5,_ZN10components7storage7ChannelIhhEC2Eh
FNDA:12,_ZN10components7storage7ChannelIhhE5EventC2EhtbSt10shared_ptrIS3_Em
FNDA:11,_ZN10components7storage7ChannelIhhE12new_endpointEv
FNDA:11,_ZN10components7storage7ChannelIhhE8EndpointC2ESt10shared_ptrIKNS2_5EventEEtS4_IS2_E
FNDA:7,_ZN10components7storage7ChannelIhhE8Endpoint12append_valueEh
FNDA:7,_ZN10components7storage7ChannelIhhE12append_eventEth
FNDA:10,_ZNK10components7storage7ChannelIhhE8Endpoint10next_valueEv
FNDA:10,_ZNK10components7storage7ChannelIhhE10next_eventESt10shared_ptrIKNS2_5EventEE
FNDA:3,_ZN10components7storage7ChannelIhhE8Endpoint7unwriteEv
FNDA:3,_ZN10components7storage7ChannelIhhE12revert_eventEtm
FNDA:3,_ZN10components7storage7ChannelIhhE16mutable_event_atEm
FNDA:1,_ZN10components7storage7ChannelIhhE8Endpoint6unreadEv
FNDA:1,_ZNK10components7storage7ChannelIhhE14previous_eventESt10shared_ptrIKNS2_5EventEE
FNF:15
FNH:14
DA:9,26
DA:16,21
DA:21,2
DA:22,2
DA:23,2
DA:28,20
DA:31,20
DA:32,20
DA:33,20
DA:34,20
DA:35,20
DA:40,15
DA:41,15
DA:42,15
DA:47,3
DA:50,3
DA:51,3
DA:52,3
DA:53,3
DA:54,3
DA:59,5
DA:63,5
DA:64,5
DA:65,5
DA:66,5
DA:67,5
DA:73,11
DA:75,11
DA:76,11
DA:81,21
DA:82,21
DA:83,21
DA:88,15
DA:90,15
DA:91,15
DA:92,15
DA:93,15
DA:98,5
DA:99,5
DA:102,5
DA:105,5
DA:107,5
DA:108,12
DA:110,7
DA:112,7
DA:114,7
DA:115,7
DA:116,7
DA:118,5
DA:120,5
DA:121,5
DA:122,5
DA:138,20
DA:140,20
DA:143,21
DA:144,21
DA:145,21
DA:146,20
DA:147,20
DA:160,3
DA:162,3
DA:165,3
DA:166,3
DA:167,3
DA:168,3
DA:169,3
DA:192,0
DA:195,0
DA:196,0
DA:198,0
DA:199,0
DA:200,0
DA:205,5
DA:207,5
DA:208,5
DA:209,11
DA:210,5
DA:211,5
BRDA:32,0,0,0
BRDA:32,0,1,10
BRDA:32,1,2,0
BRDA:32,1,3,10
BRDA:51,0,0,0
BRDA:51,0,1,2
BRDA:51,1,2,0
BRDA:51,1,3,1
BRDA:64,0,0,0
BRDA:64,0,1,3
BRDA:64,1,2,0
BRDA:64,1,3,2
BRDA:102,0,0,3
BRDA:102,0,1,0
BRDA:102,1,2,2
BRDA:102,1,3,0
BRDA:102,2,4,0
BRDA:102,2,5,3
BRDA:102,3,6,0
BRDA:102,3,7,2
BRDA:105,0,0,2
BRDA:105,0,1,0
BRDA:105,1,2,3
BRDA:105,1,3,0
BRDA:108,0,0,2
BRDA:108,0,1,2
BRDA:108,1,2,5
BRDA:108,1,3,3
BRDA:140,0,0,0
BRDA:140,0,1,10
BRDA:140,1,2,0
BRDA:140,1,3,10
BRDA:145,0,0,1
BRDA:145,0,1,10
BRDA:145,1,2,0
BRDA:145,1,3,10
BRDA:145,2,4,1
BRDA:145,2,5,0
BRDA:145,3,6,-
BRDA:145,3,7,-
BRDA:162,0,0,0
BRDA:162,0,1,1
BRDA:162,1,2,0
BRDA:162,1,3,2
BRDA:167,0,0,0
BRDA:167,0,1,2
BRDA:167,1,2,0
BRDA:167,1,3,1
BRDA:167,2,4,-
BRDA:167,2,5,-
BRDA:167,3,6,-
BRDA:167,3,7,-
BRDA:207,0,0,0
BRDA:207,0,1,2
BRDA:207,1,2,0
BRDA:207,1,3,3
BRDA:209,0,0,3
BRDA:209,0,1,2
BRDA:209,1,2,3
BRDA:209,1,3,3
BRF:30
BFH:17
LF:78
LH:72
end_of_record
SF:/workspaces/pep10term/dependencies/pepcore/src/libisa/components/storage/range.hpp
FN:22,_ZN10components7storage5RangeIhLb1EhED2Ev
FNDA:6,_ZN10components7storage5RangeIhLb1EhED2Ev
FNF:1
FNH:1
DA:22,6
BRF:0
BFH:0
LF:1
LH:1
end_of_record
SF:/workspaces/pep10term/dependencies/pepcore/src/libisa/components/storage/range.tpp
FN:11,_ZN10components7storage5RangeIhLb1EhEC2Ehh
FN:27,_ZN10components7storage5RangeIhLb1EhE5clearEh
FN:35,_ZNK10components7storage5RangeIhLb1EhE3getEh
FN:55,_ZN10components7storage5RangeIhLb1EhE3setEhh
FN:87,_ZZN10components7storage5RangeIhLb1EhE3setEhhENKUlNS0_12storage_spanIhhEES4_E_clES4_S4_
FN:113,_ZNK10components7storage5RangeIhLb1EhE4readEh
FN:121,_ZN10components7storage5RangeIhLb1EhE5writeEhh
FN:133,_ZNK10components7storage5RangeIhLb1EhE14deltas_enabledEv
FN:140,_ZN10components7storage5RangeIhLb1EhE11clear_deltaEv
FN:153,_ZN10components7storage5RangeIhLb1EhE10take_deltaEv
FN:169,_ZN10components7storage5RangeIhLb1EhE6resizeEh
FNDA:6,_ZN10components7storage5RangeIhLb1EhEC2Ehh
FNDA:12,_ZN10components7storage5RangeIhLb1EhE5clearEh
FNDA:0,_ZNK10components7storage5RangeIhLb1EhE3getEh
FNDA:0,_ZN10components7storage5RangeIhLb1EhE3setEhh
FNDA:0,_ZZN10components7storage5RangeIhLb1EhE3setEhhENKUlNS0_12storage_spanIhhEES4_E_clES4_S4_
FNDA:0,_ZNK10components7storage5RangeIhLb1EhE4readEh
FNDA:0,_ZN10components7storage5RangeIhLb1EhE5writeEhh
FNDA:0,_ZNK10components7storage5RangeIhLb1EhE14deltas_enabledEv
FNDA:0,_ZN10components7storage5RangeIhLb1EhE11clear_deltaEv
FNDA:0,_ZN10components7storage5RangeIhLb1EhE10take_deltaEv
FNDA:12,_ZN10components7storage5RangeIhLb1EhE6resizeEh
FNF:11
FNH:3
DA:11,6
DA:13,6
DA:27,12
DA:28,12
DA:29,12
DA:30,12
DA:35,0
DA:36,0
DA:37,0
DA:38,0
DA:40,0
DA:41,0
DA:42,0
DA:43,0
DA:44,0
DA:45,0
DA:46,0
DA:47,0
DA:48,0
DA:49,0
DA:50,0
DA:55,0
DA:56,0
DA:58,0
DA:60,0
DA:61,0
DA:62,0
DA:63,0
DA:64,0
DA:65,0
DA:67,0
DA:68,0
DA:69,0
DA:70,0
DA:71,0
DA:72,0
DA:73,0
DA:75,0
DA:76,0
DA:77,0
DA:78,0
DA:83,0
DA:85,0
DA:87,0
DA:88,0
DA:91,0
DA:95,0
DA:96,0
DA:98,0
DA:100,0
DA:101,0
DA:103,0
DA:104,0
DA:105,0
DA:106,0
DA:107,0
DA:108,0
DA:113,0
DA:115,0
DA:116,0
DA:121,0
DA:122,0
DA:124,0
DA:125,0
DA:126,0
DA:127,0
DA:128,0
DA:133,0
DA:134,0
DA:135,0
DA:140,0
DA:141,0
DA:142,0
DA:143,0
DA:144,0
DA:145,0
DA:146,0
DA:147,0
DA:148,0
DA:153,0
DA:154,0
DA:156,0
DA:157,0
DA:158,0
DA:159,0
DA:160,0
DA:161,0
DA:162,0
DA:163,0
DA:164,0
DA:169,12
DA:170,12
DA:171,12
DA:172,12
DA:173,12
BRDA:40,0,0,-
BRDA:40,0,1,-
BRDA:42,0,0,-
BRDA:42,0,1,-
BRDA:44,0,0,-
BRDA:44,0,1,-
BRDA:56,0,0,-
BRDA:56,0,1,-
BRDA:60,0,0,-
BRDA:60,0,1,-
BRDA:62,0,0,-
BRDA:62,0,1,-
BRDA:67,0,0,-
BRDA:67,0,1,-
BRDA:75,0,0,-
BRDA:75,0,1,-
BRDA:83,0,0,-
BRDA:83,0,1,-
BRDA:91,0,0,-
BRDA:91,0,1,-
BRDA:98,0,0,-
BRDA:98,0,1,-
BRDA:124,0,0,-
BRDA:124,0,1,-
BRF:24
BFH:0
LF:96
LH:11
end_of_record
SF:/workspaces/pep10term/dependencies/pepcore/src/libisa/components/storage/storage_error.cpp
FN:2,_Z11status_code11StorageErrc
FNDA:0,_Z11status_code11StorageErrc
FNF:1
FNH:0
DA:2,0
BRF:0
BFH:0
LF:1
LH:0
end_of_record
SF:/workspaces/pep10term/dependencies/pepcore/src/libisa/components/storage/storage_error.hpp
FN:40,_ZN13system_error227quick_status_code_from_enumI11StorageErrcE14value_mappingsEv
FNDA:2,_ZN13system_error227quick_status_code_from_enumI11StorageErrcE14value_mappingsEv
FNF:1
FNH:1
DA:40,2
DA:41,2
DA:43,2
DA:44,2
DA:45,2
DA:46,2
DA:47,2
DA:48,2
DA:49,2
DA:50,2
DA:51,2
DA:52,2
DA:53,2
BRF:0
BFH:0
LF:13
LH:13
end_of_record
SF:/workspaces/pep10term/dependencies/pepcore/src/libisa/isa/pep10/local_machine.hpp
FN:20,_ZN3isa5pep1012LocalMachineILb1EED2Ev
FNDA:184,_ZN3isa5pep1012LocalMachineILb1EED2Ev
FNF:1
FNH:1
DA:20,184
BRF:0
BFH:0
LF:1
LH:1
end_of_record
SF:/workspaces/pep10term/dependencies/pepcore/src/libisa/isa/pep10/local_machine.tpp
FN:15,_ZN3isa5pep1012LocalMachineILb1EEC2ESt10shared_ptrIN10components7storage4BaseItLb1EhEEE
FN:29,_ZNK3isa5pep1012LocalMachineILb1EE6haltedEv
FN:35,_ZNK3isa5pep1012LocalMachineILb1EE10get_memoryEt
FN:41,_ZN3isa5pep1012LocalMachineILb1EE10set_memoryEth
FN:47,_ZNK3isa5pep1012LocalMachineILb1EE11read_memoryEt
FN:53,_ZN3isa5pep1012LocalMachineILb1EE12write_memoryEth
FN:59,_ZNK3isa5pep1012LocalMachineILb1EE10max_offsetEv
FN:101,_ZN3isa5pep1012LocalMachineILb1EE25unwind_active_instructionEv
FN:107,_ZNK3isa5pep1012LocalMachineILb1EE19address_from_vectorENS0_12MemoryVectorE
FN:144,_ZN3isa5pep1012LocalMachineILb1EE17begin_transactionEv
FN:151,_ZN3isa5pep1012LocalMachineILb1EE15end_transactionEv
FN:158,_ZN3isa5pep1012LocalMachineILb1EE17begin_instructionEv
FN:164,_ZN3isa5pep1012LocalMachineILb1EE15end_instructionEv
FN:171,_ZN3isa5pep1010load_bytesILb1EEEN19outcome_v2_35644f5c12basic_resultIvN13system_error211status_codeINS4_6erasedIlLb1EEEEENS2_12experimental6policy17status_code_throwIvS8_vEEEESt10shared_ptrINS0_12LocalMachineIXT_EEEESt6vectorIhSaIhEEt
FN:71,_ZN3isa5pep1012LocalMachineILb1EE14write_registerENS0_8RegisterEt
FN:21,_ZN3isa5pep1012LocalMachineILb1EE4stepEv
FN:65,_ZNK3isa5pep1012LocalMachineILb1EE13read_registerENS0_8RegisterE
FN:77,_ZNK3isa5pep1012LocalMachineILb1EE8read_csrENS0_3CSRE
FN:83,_ZN3isa5pep1012LocalMachineILb1EE9write_csrENS0_3CSREb
FN:123,_ZN3isa5pep1012LocalMachineILb1EE9clear_allEhtb
FN:130,_ZN3isa5pep1012LocalMachineILb1EE12clear_memoryEh
FN:137,_ZN3isa5pep1012LocalMachineILb1EE15clear_processorEtb
FN:95,_ZN3isa5pep1012LocalMachineILb1EE16write_packed_csrEh
FN:89,_ZNK3isa5pep1012LocalMachineILb1EE15read_packed_csrEv
FNDA:184,_ZN3isa5pep1012LocalMachineILb1EEC2ESt10shared_ptrIN10components7storage4BaseItLb1EhEEE
FNDA:0,_ZNK3isa5pep1012LocalMachineILb1EE6haltedEv
FNDA:7864470,_ZNK3isa5pep1012LocalMachineILb1EE10get_memoryEt
FNDA:0,_ZN3isa5pep1012LocalMachineILb1EE10set_memoryEth
FNDA:119994984,_ZNK3isa5pep1012LocalMachineILb1EE11read_memoryEt
FNDA:127859440,_ZN3isa5pep1012LocalMachineILb1EE12write_memoryEth
FNDA:119994809,_ZNK3isa5pep1012LocalMachineILb1EE10max_offsetEv
FNDA:0,_ZN3isa5pep1012LocalMachineILb1EE25unwind_active_instructionEv
FNDA:121,_ZNK3isa5pep1012LocalMachineILb1EE19address_from_vectorENS0_12MemoryVectorE
FNDA:86572170,_ZN3isa5pep1012LocalMachineILb1EE17begin_transactionEv
FNDA:86572170,_ZN3isa5pep1012LocalMachineILb1EE15end_transactionEv
FNDA:43318798,_ZN3isa5pep1012LocalMachineILb1EE17begin_instructionEv
FNDA:43318798,_ZN3isa5pep1012LocalMachineILb1EE15end_instructionEv
FNDA:43318781,_ZN3isa5pep1010load_bytesILb1EEEN19outcome_v2_35644f5c12basic_resultIvN13system_error211status_codeINS4_6erasedIlLb1EEEEENS2_12experimental6policy17status_code_throwIvS8_vEEEESt10shared_ptrINS0_12LocalMachineIXT_EEEESt6vectorIhSaIhEEt
FNDA:32702177,_ZN3isa5pep1012LocalMachineILb1EE14write_registerENS0_8RegisterEt
FNDA:43318798,_ZN3isa5pep1012LocalMachineILb1EE4stepEv
FNDA:307163431,_ZNK3isa5pep1012LocalMachineILb1EE13read_registerENS0_8RegisterE
FNDA:72743854,_ZNK3isa5pep1012LocalMachineILb1EE8read_csrENS0_3CSRE
FNDA:17039102,_ZN3isa5pep1012LocalMachineILb1EE9write_csrENS0_3CSREb
FNDA:43318666,_ZN3isa5pep1012LocalMachineILb1EE9clear_allEhtb
FNDA:43318666,_ZN3isa5pep1012LocalMachineILb1EE12clear_memoryEh
FNDA:43318666,_ZN3isa5pep1012LocalMachineILb1EE15clear_processorEtb
FNDA:31260322,_ZN3isa5pep1012LocalMachineILb1EE16write_packed_csrEh
FNDA:27328224,_ZNK3isa5pep1012LocalMachineILb1EE15read_packed_csrEv
FNF:24
FNH:21
DA:15,184
DA:17,184
DA:21,43318798
DA:23,43318798
DA:24,43318798
DA:25,43318798
DA:29,0
DA:30,0
DA:31,0
DA:35,7864470
DA:36,7864470
DA:37,7864470
DA:41,0
DA:42,0
DA:43,0
DA:47,119994984
DA:48,119994984
DA:49,119994984
DA:53,127859440
DA:54,127859440
DA:55,127859440
DA:59,119994809
DA:60,119994809
DA:61,119994809
DA:65,307163431
DA:66,307163431
DA:67,307163431
DA:71,32702177
DA:72,32702177
DA:73,32702177
DA:77,72743854
DA:78,72743854
DA:79,72743854
DA:83,17039102
DA:84,17039102
DA:85,17039102
DA:89,27328224
DA:90,27328224
DA:91,27328224
DA:95,31260322
DA:96,31260322
DA:97,31260322
DA:101,0
DA:102,0
DA:103,0
DA:107,121
DA:108,121
DA:109,121
DA:110,121
DA:111,0
DA:112,61
DA:113,0
DA:114,0
DA:115,0
DA:116,60
DA:117,121
DA:118,0
DA:119,121
DA:123,43318666
DA:124,43318666
DA:125,43318666
DA:126,43318666
DA:130,43318666
DA:131,43318666
DA:132,43318666
DA:133,43318666
DA:137,43318666
DA:138,43318666
DA:139,43318666
DA:144,86572170
DA:147,86572170
DA:151,86572170
DA:154,86572170
DA:158,43318798
DA:160,43318798
DA:164,43318798
DA:166,43318798
DA:171,43318781
DA:172,43318781
DA:173,119994809
DA:174,119994809
DA:175,119994809
DA:176,119994809
DA:177,43318781
DA:178,43318781
BRDA:109,0,0,0
BRDA:109,0,1,121
BRDA:111,0,0,0
BRDA:111,0,1,121
BRDA:112,0,0,61
BRDA:112,0,1,60
BRDA:113,0,0,0
BRDA:113,0,1,121
BRDA:114,0,0,0
BRDA:114,0,1,121
BRDA:115,0,0,0
BRDA:115,0,1,121
BRDA:116,0,0,60
BRDA:116,0,1,61
BRDA:172,0,0,119994809
BRDA:172,0,1,43318781
BRDA:175,0,0,0
BRDA:175,0,1,119994809
BRF:18
BFH:12
LF:85
LH:71
end_of_record
SF:/workspaces/pep10term/dependencies/pepcore/src/libisa/isa/pep10/local_processor.cpp
FN:16,_ZN3isa5pep1014LocalProcessorC2ERN10components7machine25MachineProcessorInterfaceIthNS0_12MemoryVectorEEE
FN:21,_ZN3isa5pep1014LocalProcessor4stepEv
FN:73,_ZNK3isa5pep1014LocalProcessor13can_step_intoEv
FN:78,_ZNK3isa5pep1014LocalProcessor10call_depthEv
FN:84,_ZN3isa5pep1014LocalProcessor4initEv
FN:91,_ZN3isa5pep1014LocalProcessor5debugEb
FN:96,_ZN3isa5pep1014LocalProcessor5clearEtb
FN:105,_ZNK3isa5pep1014LocalProcessor13read_registerEh
FN:110,_ZN3isa5pep1014LocalProcessor14write_registerEht
FN:115,_ZNK3isa5pep1014LocalProcessor14register_countEv
FN:122,_ZNK3isa5pep1014LocalProcessor8read_csrEh
FN:127,_ZN3isa5pep1014LocalProcessor9write_csrEhb
FN:132,_ZNK3isa5pep1014LocalProcessor9csr_countEv
FN:140,_ZNK3isa5pep1014LocalProcessor11cycle_countEv
FN:145,_ZNK3isa5pep1014LocalProcessor17instruction_countEv
FN:151,_ZN3isa5pep1014LocalProcessor10take_deltaEv
FN:156,_ZN3isa5pep1014LocalProcessor14unary_dispatchEh
FN:379,_ZN3isa5pep1014LocalProcessor17nonunary_dispatchEht
FN:685,_ZNK3isa5pep1014LocalProcessor9read_byteEt
FN:695,_ZNK3isa5pep1014LocalProcessor9read_wordEt
FN:706,_ZN3isa5pep1014LocalProcessor10write_byteEth
FN:712,_ZN3isa5pep1014LocalProcessor10write_wordEtt
FN:724,_ZN3isa5pep1014LocalProcessor19decode_load_operandERKNS0_22instruction_definitionENS0_15addressing_modeEt
FN:824,_ZN3isa5pep1014LocalProcessor20decode_store_operandERKNS0_22instruction_definitionENS0_15addressing_modeEt
FN:854,_ZN3isa5pep1013read_registerERKNS0_14LocalProcessorENS0_8RegisterE
FN:859,_ZN3isa5pep1014write_registerERNS0_14LocalProcessorENS0_8RegisterEt
FN:864,_ZN3isa5pep109read_NZVCERKNS0_14LocalProcessorENS0_3CSRE
FN:869,_ZN3isa5pep1010write_NZVCERNS0_14LocalProcessorENS0_3CSREb
FN:874,_ZN3isa5pep1016read_packed_NZVCERKNS0_14LocalProcessorE
FN:884,_ZN3isa5pep1017write_packed_NZVCERNS0_14LocalProcessorEh
FNDA:184,_ZN3isa5pep1014LocalProcessorC2ERN10components7machine25MachineProcessorInterfaceIthNS0_12MemoryVectorEEE
FNDA:43318798,_ZN3isa5pep1014LocalProcessor4stepEv
FNDA:0,_ZNK3isa5pep1014LocalProcessor13can_step_intoEv
FNDA:0,_ZNK3isa5pep1014LocalProcessor10call_depthEv
FNDA:0,_ZN3isa5pep1014LocalProcessor4initEv
FNDA:0,_ZN3isa5pep1014LocalProcessor5debugEb
FNDA:43318666,_ZN3isa5pep1014LocalProcessor5clearEtb
FNDA:485353808,_ZNK3isa5pep1014LocalProcessor13read_registerEh
FNDA:230815027,_ZN3isa5pep1014LocalProcessor14write_registerEht
FNDA:0,_ZNK3isa5pep1014LocalProcessor14register_countEv
FNDA:196474634,_ZNK3isa5pep1014LocalProcessor8read_csrEh
FNDA:177862606,_ZN3isa5pep1014LocalProcessor9write_csrEhb
FNDA:0,_ZNK3isa5pep1014LocalProcessor9csr_countEv
FNDA:0,_ZNK3isa5pep1014LocalProcessor11cycle_countEv
FNDA:0,_ZNK3isa5pep1014LocalProcessor17instruction_countEv
FNDA:0,_ZN3isa5pep1014LocalProcessor10take_deltaEv
FNDA:4980804,_ZN3isa5pep1014LocalProcessor14unary_dispatchEh
FNDA:38337994,_ZN3isa5pep1014LocalProcessor17nonunary_dispatchEht
FNDA:43318806,_ZNK3isa5pep1014LocalProcessor9read_byteEt
FNDA:38338089,_ZNK3isa5pep1014LocalProcessor9read_wordEt
FNDA:1966080,_ZN3isa5pep1014LocalProcessor10write_byteEth
FNDA:2949195,_ZN3isa5pep1014LocalProcessor10write_wordEtt
FNDA:34405894,_ZN3isa5pep1014LocalProcessor19decode_load_operandERKNS0_22instruction_definitionENS0_15addressing_modeEt
FNDA:3932100,_ZN3isa5pep1014LocalProcessor20decode_store_operandERKNS0_22instruction_definitionENS0_15addressing_modeEt
FNDA:485353808,_ZN3isa5pep1013read_registerERKNS0_14LocalProcessorENS0_8RegisterE
FNDA:230815027,_ZN3isa5pep1014write_registerERNS0_14LocalProcessorENS0_8RegisterEt
FNDA:196474634,_ZN3isa5pep109read_NZVCERKNS0_14LocalProcessorENS0_3CSRE
FNDA:177862606,_ZN3isa5pep1010write_NZVCERNS0_14LocalProcessorENS0_3CSREb
FNDA:27328270,_ZN3isa5pep1016read_packed_NZVCERKNS0_14LocalProcessorE
FNDA:31260339,_ZN3isa5pep1017write_packed_NZVCERNS0_14LocalProcessorEh
FNF:30
FNH:21
DA:16,184
DA:18,184
DA:21,43318798
DA:22,43318798
DA:23,43318798
DA:24,43318798
DA:27,43318798
DA:30,43318798
DA:31,43318798
DA:32,0
DA:34,0
DA:35,0
DA:36,43318798
DA:39,43318798
DA:41,43318798
DA:42,4980804
DA:43,4980804
DA:44,0
DA:45,0
DA:46,0
DA:47,38337994
DA:49,38337994
DA:50,38337994
DA:51,0
DA:53,0
DA:54,0
DA:55,38337994
DA:58,38337994
DA:60,38337994
DA:61,38337994
DA:62,0
DA:63,0
DA:64,0
DA:65,38337994
DA:66,43318798
DA:68,43318798
DA:70,43318798
DA:73,0
DA:74,0
DA:75,0
DA:78,0
DA:79,0
DA:80,0
DA:84,0
DA:85,0
DA:86,0
DA:87,0
DA:88,0
DA:91,0
DA:92,0
DA:93,0
DA:96,43318666
DA:97,43318666
DA:98,43318666
DA:99,43318666
DA:100,43318666
DA:101,43318666
DA:105,485353808
DA:106,485353808
DA:107,485353808
DA:110,230815027
DA:111,230815027
DA:112,230815027
DA:115,0
DA:117,0
DA:118,0
DA:122,196474634
DA:123,196474634
DA:124,196474634
DA:127,177862606
DA:128,177862606
DA:129,177862606
DA:132,0
DA:134,0
DA:135,0
DA:140,0
DA:141,0
DA:142,0
DA:145,0
DA:146,0
DA:147,0
DA:151,0
DA:152,0
DA:153,0
DA:156,4980804
DA:157,4980804
DA:158,4980804
DA:159,4980804
DA:161,4980804
DA:162,4980804
DA:163,4980804
DA:164,4980804
DA:165,4980804
DA:166,4980804
DA:168,4980804
DA:169,4980804
DA:170,4980804
DA:171,4980804
DA:172,17
DA:173,17
DA:174,17
DA:175,17
DA:176,17
DA:177,17
DA:179,1
DA:181,1
DA:182,1
DA:184,1
DA:186,1
DA:187,1
DA:188,1
DA:190,1
DA:191,1
DA:192,1
DA:194,1
DA:195,1
DA:196,1
DA:198,1
DA:199,1
DA:200,1
DA:201,1
DA:203,16
DA:204,16
DA:205,16
DA:206,16
DA:207,16
DA:208,16
DA:210,16
DA:211,16
DA:212,16
DA:213,16
DA:214,16
DA:215,16
DA:217,16
DA:218,16
DA:219,16
DA:220,16
DA:222,16
DA:223,16
DA:225,262140
DA:226,262140
DA:227,262140
DA:228,262140
DA:229,262140
DA:230,262140
DA:231,262140
DA:232,262140
DA:233,262140
DA:234,262140
DA:235,262140
DA:236,262140
DA:238,131070
DA:239,131070
DA:240,131070
DA:241,131070
DA:242,131070
DA:243,131070
DA:244,131070
DA:245,131070
DA:246,131070
DA:247,131070
DA:248,131070
DA:249,131070
DA:250,131070
DA:251,131070
DA:253,65535
DA:255,65535
DA:256,65535
DA:258,65535
DA:260,65535
DA:263,65535
DA:265,65535
DA:266,65535
DA:267,65535
DA:269,65535
DA:270,65535
DA:272,65535
DA:274,65535
DA:277,65535
DA:279,65535
DA:280,65535
DA:282,65535
DA:285,65535
DA:286,65535
DA:288,65535
DA:290,65535
DA:292,65535
DA:293,65535
DA:294,65535
DA:297,65535
DA:298,65535
DA:300,65535
DA:302,65535
DA:304,65535
DA:305,65535
DA:307,983025
DA:309,983025
DA:310,983025
DA:312,983025
DA:313,983025
DA:314,983025
DA:316,983025
DA:317,983025
DA:319,983025
DA:320,983025
DA:322,983025
DA:324,983025
DA:325,983025
DA:327,983025
DA:328,983025
DA:329,983025
DA:331,983025
DA:332,983025
DA:334,983025
DA:335,983025
DA:337,15
DA:339,30
DA:340,30
DA:341,30
DA:342,30
DA:344,30
DA:347,30
DA:348,30
DA:351,30
DA:352,30
DA:355,30
DA:356,30
DA:359,30
DA:360,30
DA:363,30
DA:364,30
DA:365,30
DA:367,30
DA:368,30
DA:369,30
DA:370,30
DA:371,30
DA:372,0
DA:373,0
DA:374,4980804
DA:375,4980804
DA:376,4980804
DA:379,38337994
DA:380,38337994
DA:381,38337994
DA:382,38337994
DA:383,38337994
DA:384,38337994
DA:385,38337994
DA:387,38337994
DA:388,38337994
DA:389,38337994
DA:390,38337994
DA:391,38337994
DA:392,38337994
DA:394,38337994
DA:395,38337994
DA:396,38337994
DA:398,38337994
DA:399,38337994
DA:400,34405894
DA:401,38337994
DA:402,38337994
DA:404,38337994
DA:405,983025
DA:406,983025
DA:407,983025
DA:408,983025
DA:409,983025
DA:410,720885
DA:411,720885
DA:412,983025
DA:413,983025
DA:414,983025
DA:415,458745
DA:416,458745
DA:417,983025
DA:418,983025
DA:419,983025
DA:420,458745
DA:421,458745
DA:422,983025
DA:423,983025
DA:424,983025
DA:425,524280
DA:426,524280
DA:427,983025
DA:428,983025
DA:429,983025
DA:430,524280
DA:431,524280
DA:432,983025
DA:433,983025
DA:434,983025
DA:435,262140
DA:436,262140
DA:437,983025
DA:438,983025
DA:439,983025
DA:440,458745
DA:441,458745
DA:442,983025
DA:443,983025
DA:444,983025
DA:445,458745
DA:446,458745
DA:447,983025
DA:448,983025
DA:449,983025
DA:450,983025
DA:451,983025
DA:454,983025
DA:456,983025
DA:457,983025
DA:458,6291360
DA:459,6291360
DA:460,6291360
DA:461,6291360
DA:462,6291360
DA:463,6291360
DA:465,393210
DA:467,393210
DA:468,393210
DA:470,393210
DA:472,393210
DA:476,393210
DA:478,393210
DA:479,393210
DA:480,393210
DA:482,393210
DA:483,393210
DA:485,393210
DA:487,393210
DA:491,393210
DA:493,393210
DA:494,393210
DA:495,393210
DA:497,393210
DA:498,393210
DA:500,393210
DA:502,393210
DA:506,393210
DA:508,393210
DA:509,393210
DA:510,393210
DA:512,393210
DA:513,393210
DA:515,393210
DA:517,393210
DA:521,393210
DA:523,393210
DA:524,393210
DA:526,1179630
DA:527,1179630
DA:528,1179630
DA:530,1179630
DA:532,1179630
DA:533,1179630
DA:534,1179630
DA:535,1179630
DA:536,1179630
DA:538,1179630
DA:540,1179630
DA:541,1179630
DA:542,1179630
DA:543,1179630
DA:544,1179630
DA:546,1179630
DA:548,1179630
DA:549,1179630
DA:550,1179630
DA:551,1179630
DA:552,1179630
DA:554,1179630
DA:556,1179630
DA:557,1179630
DA:558,1179630
DA:559,1179630
DA:560,1179630
DA:562,1179630
DA:564,1179630
DA:565,1179630
DA:566,1179630
DA:567,1179630
DA:568,1179630
DA:570,1179630
DA:572,1179630
DA:573,1179630
DA:575,393210
DA:577,393210
DA:579,393210
DA:581,393210
DA:585,393210
DA:587,393210
DA:589,393210
DA:590,393210
DA:591,393210
DA:593,393210
DA:595,393210
DA:597,393210
DA:601,393210
DA:603,393210
DA:605,393210
DA:606,393210
DA:607,393210
DA:609,393210
DA:610,393210
DA:612,393210
DA:614,393210
DA:616,393210
DA:617,393210
DA:618,393210
DA:619,393210
DA:621,393210
DA:622,393210
DA:624,393210
DA:626,393210
DA:628,393210
DA:629,393210
DA:630,393210
DA:631,983025
DA:632,983025
DA:633,983025
DA:634,196615
DA:635,196615
DA:637,196615
DA:639,196615
DA:640,196615
DA:641,196606
DA:642,196606
DA:644,196606
DA:646,196606
DA:647,196606
DA:648,393218
DA:649,393218
DA:651,393218
DA:653,393218
DA:654,393218
DA:655,0
DA:656,0
DA:658,0
DA:660,0
DA:661,0
DA:662,983025
DA:663,983025
DA:664,983025
DA:665,983025
DA:666,983025
DA:667,983025
DA:668,983025
DA:669,983025
DA:670,983025
DA:671,983025
DA:672,983025
DA:673,983025
DA:674,983025
DA:675,983025
DA:676,983025
DA:677,983025
DA:678,983025
DA:679,0
DA:680,38337994
DA:681,38337994
DA:682,38337994
DA:685,43318806
DA:687,43318806
DA:688,43318806
DA:690,43318806
DA:691,43318806
DA:692,43318806
DA:695,38338089
DA:696,38338089
DA:697,38338089
DA:698,38338089
DA:699,38338089
DA:700,38338089
DA:702,38338089
DA:703,38338089
DA:706,1966080
DA:707,1966080
DA:708,1966080
DA:709,1966080
DA:712,2949195
DA:713,2949195
DA:714,2949195
DA:715,2949195
DA:716,2949195
DA:717,2949195
DA:718,2949195
DA:719,2949195
DA:720,2949195
DA:721,2949195
DA:724,34405894
DA:725,34405894
DA:726,34405894
DA:727,34405894
DA:728,34405894
DA:729,34405894
DA:730,34405894
DA:731,34405894
DA:733,1179638
DA:734,1179638
DA:735,1179631
DA:736,1179631
DA:737,1
DA:738,1
DA:739,1
DA:740,1
DA:741,1
DA:742,1
DA:743,1
DA:744,1
DA:745,1
DA:746,1
DA:747,1
DA:748,1
DA:749,1
DA:750,1
DA:751,1
DA:752,1
DA:753,1
DA:754,1
DA:755,1
DA:756,1
DA:757,1
DA:758,1
DA:759,1
DA:760,1
DA:761,1
DA:762,1
DA:763,1
DA:764,1
DA:765,1
DA:766,1
DA:767,1
DA:768,1
DA:769,1
DA:770,1
DA:771,1
DA:772,0
DA:773,0
DA:774,1179638
DA:775,1179638
DA:776,33226256
DA:777,33226256
DA:778,33226256
DA:779,33226248
DA:780,33226248
DA:781,2
DA:782,2
DA:783,2
DA:784,2
DA:785,1
DA:786,1
DA:787,1
DA:788,1
DA:789,1
DA:790,1
DA:791,1
DA:792,1
DA:793,1
DA:794,1
DA:795,1
DA:796,1
DA:797,1
DA:798,1
DA:799,1
DA:800,1
DA:801,1
DA:802,1
DA:803,1
DA:804,1
DA:805,1
DA:806,1
DA:807,1
DA:808,1
DA:809,1
DA:810,1
DA:811,1
DA:812,1
DA:813,1
DA:814,1
DA:815,1
DA:816,0
DA:817,0
DA:818,33226256
DA:819,33226256
DA:820,0
DA:821,34405894
DA:824,3932100
DA:825,3932100
DA:826,3932100
DA:827,3932100
DA:828,3932100
DA:829,3932100
DA:830,3932100
DA:831,0
DA:832,0
DA:833,0
DA:834,0
DA:835,0
DA:836,0
DA:837,0
DA:838,0
DA:839,0
DA:840,0
DA:841,0
DA:842,0
DA:843,0
DA:844,0
DA:845,0
DA:846,0
DA:847,0
DA:848,3932100
DA:850,0
DA:851,3932100
DA:854,485353808
DA:855,485353808
DA:856,485353808
DA:859,230815027
DA:860,230815027
DA:861,230815027
DA:864,196474634
DA:865,196474634
DA:866,196474634
DA:869,177862606
DA:870,177862606
DA:871,177862606
DA:874,27328270
DA:875,27328270
DA:876,27328270
DA:877,27328270
DA:878,27328270
DA:879,27328270
DA:880,27328270
DA:881,27328270
DA:884,31260339
DA:885,31260339
DA:886,31260339
DA:887,31260339
DA:888,31260339
DA:889,31260339
BRDA:31,0,0,0
BRDA:31,0,1,43318798
BRDA:41,0,0,4980804
BRDA:41,0,1,38337994
BRDA:43,0,0,0
BRDA:43,0,1,4980804
BRDA:50,0,0,0
BRDA:50,0,1,38337994
BRDA:61,0,0,0
BRDA:61,0,1,38337994
BRDA:172,0,0,17
BRDA:172,0,1,4980787
BRDA:174,0,0,0
BRDA:174,0,1,17
BRDA:179,0,0,1
BRDA:179,0,1,4980803
BRDA:182,0,0,0
BRDA:182,0,1,1
BRDA:187,0,0,0
BRDA:187,0,1,1
BRDA:191,0,0,0
BRDA:191,0,1,1
BRDA:195,0,0,0
BRDA:195,0,1,1
BRDA:199,0,0,0
BRDA:199,0,1,1
BRDA:203,0,0,16
BRDA:203,0,1,4980788
BRDA:206,0,0,16
BRDA:206,0,1,4980788
BRDA:210,0,0,16
BRDA:210,0,1,4980788
BRDA:213,0,0,16
BRDA:213,0,1,4980788
BRDA:217,0,0,16
BRDA:217,0,1,4980788
BRDA:222,0,0,16
BRDA:222,0,1,4980788
BRDA:225,0,0,262140
BRDA:225,0,1,4718664
BRDA:231,0,0,262140
BRDA:231,0,1,4718664
BRDA:238,0,0,131070
BRDA:238,0,1,4849734
BRDA:245,0,0,131070
BRDA:245,0,1,4849734
BRDA:253,0,0,65535
BRDA:253,0,1,4915269
BRDA:267,0,0,65535
BRDA:267,0,1,4915269
BRDA:282,0,0,65535
BRDA:282,0,1,4915269
BRDA:285,0,0,32767
BRDA:285,0,1,32768
BRDA:294,0,0,65535
BRDA:294,0,1,4915269
BRDA:297,0,0,32767
BRDA:297,0,1,32768
BRDA:307,0,0,983025
BRDA:307,0,1,3997779
BRDA:309,0,0,458745
BRDA:309,0,1,524280
BRDA:314,0,0,983025
BRDA:314,0,1,3997779
BRDA:316,0,0,458745
BRDA:316,0,1,524280
BRDA:322,0,0,983025
BRDA:322,0,1,3997779
BRDA:324,0,0,458745
BRDA:324,0,1,524280
BRDA:329,0,0,983025
BRDA:329,0,1,3997779
BRDA:331,0,0,458745
BRDA:331,0,1,524280
BRDA:337,0,0,15
BRDA:337,0,1,4980789
BRDA:339,0,0,15
BRDA:339,0,1,4980789
BRDA:342,0,0,0
BRDA:342,0,1,30
BRDA:348,0,0,0
BRDA:348,0,1,30
BRDA:352,0,0,0
BRDA:352,0,1,30
BRDA:356,0,0,0
BRDA:356,0,1,30
BRDA:360,0,0,0
BRDA:360,0,1,30
BRDA:364,0,0,0
BRDA:364,0,1,30
BRDA:369,0,0,0
BRDA:369,0,1,30
BRDA:372,0,0,0
BRDA:372,0,1,4980804
BRDA:399,0,0,3932100
BRDA:399,0,1,34405894
BRDA:401,0,0,0
BRDA:401,0,1,38337994
BRDA:405,0,0,983025
BRDA:405,0,1,37354969
BRDA:408,0,0,983025
BRDA:408,0,1,37354969
BRDA:409,0,0,458745
BRDA:409,0,1,524280
BRDA:409,1,2,262140
BRDA:409,1,3,262140
BRDA:413,0,0,983025
BRDA:413,0,1,37354969
BRDA:414,0,0,458745
BRDA:414,0,1,524280
BRDA:418,0,0,983025
BRDA:418,0,1,37354969
BRDA:419,0,0,458745
BRDA:419,0,1,524280
BRDA:423,0,0,983025
BRDA:423,0,1,37354969
BRDA:424,0,0,524280
BRDA:424,0,1,458745
BRDA:428,0,0,983025
BRDA:428,0,1,37354969
BRDA:429,0,0,524280
BRDA:429,0,1,458745
BRDA:433,0,0,983025
BRDA:433,0,1,37354969
BRDA:434,0,0,524280
BRDA:434,0,1,458745
BRDA:434,1,2,262140
BRDA:434,1,3,262140
BRDA:438,0,0,983025
BRDA:438,0,1,37354969
BRDA:439,0,0,458745
BRDA:439,0,1,524280
BRDA:443,0,0,983025
BRDA:443,0,1,37354969
BRDA:444,0,0,458745
BRDA:444,0,1,524280
BRDA:448,0,0,983025
BRDA:448,0,1,37354969
BRDA:451,0,0,0
BRDA:451,0,1,983025
BRDA:458,0,0,6291360
BRDA:458,0,1,32046634
BRDA:461,0,0,6291360
BRDA:461,0,1,32046634
BRDA:465,0,0,393210
BRDA:465,0,1,37944784
BRDA:478,0,0,167929
BRDA:478,0,1,225281
BRDA:478,1,2,0
BRDA:478,1,3,225281
BRDA:480,0,0,393210
BRDA:480,0,1,37944784
BRDA:493,0,0,167929
BRDA:493,0,1,225281
BRDA:493,1,2,0
BRDA:493,1,3,225281
BRDA:495,0,0,393210
BRDA:495,0,1,37944784
BRDA:508,0,0,167933
BRDA:508,0,1,225277
BRDA:508,1,2,0
BRDA:508,1,3,225277
BRDA:510,0,0,393210
BRDA:510,0,1,37944784
BRDA:523,0,0,167933
BRDA:523,0,1,225277
BRDA:523,1,2,0
BRDA:523,1,3,225277
BRDA:526,0,0,1179630
BRDA:526,0,1,37158364
BRDA:534,0,0,1179630
BRDA:534,0,1,37158364
BRDA:542,0,0,1179630
BRDA:542,0,1,37158364
BRDA:550,0,0,1179630
BRDA:550,0,1,37158364
BRDA:558,0,0,1179630
BRDA:558,0,1,37158364
BRDA:566,0,0,1179630
BRDA:566,0,1,37158364
BRDA:575,0,0,393210
BRDA:575,0,1,37944784
BRDA:587,0,0,167933
BRDA:587,0,1,225277
BRDA:587,1,2,0
BRDA:587,1,3,225277
BRDA:591,0,0,393210
BRDA:591,0,1,37944784
BRDA:603,0,0,167933
BRDA:603,0,1,225277
BRDA:603,1,2,0
BRDA:603,1,3,225277
BRDA:607,0,0,393210
BRDA:607,0,1,37944784
BRDA:619,0,0,393210
BRDA:619,0,1,37944784
BRDA:631,0,0,983025
BRDA:631,0,1,37354969
BRDA:634,0,0,196615
BRDA:634,0,1,38141379
BRDA:641,0,0,196606
BRDA:641,0,1,38141388
BRDA:648,0,0,393218
BRDA:648,0,1,37944776
BRDA:655,0,0,0
BRDA:655,0,1,38337994
BRDA:662,0,0,983025
BRDA:662,0,1,37354969
BRDA:664,0,0,0
BRDA:664,0,1,983025
BRDA:666,0,0,983025
BRDA:666,0,1,37354969
BRDA:668,0,0,0
BRDA:668,0,1,983025
BRDA:670,0,0,983025
BRDA:670,0,1,37354969
BRDA:672,0,0,0
BRDA:672,0,1,983025
BRDA:674,0,0,983025
BRDA:674,0,1,37354969
BRDA:676,0,0,0
BRDA:676,0,1,983025
BRDA:678,0,0,0
BRDA:678,0,1,38337994
BRDA:690,0,0,0
BRDA:690,0,1,43318806
BRDA:698,0,0,0
BRDA:698,0,1,38338089
BRDA:700,0,0,0
BRDA:700,0,1,38338089
BRDA:717,0,0,0
BRDA:717,0,1,2949195
BRDA:719,0,0,0
BRDA:719,0,1,2949195
BRDA:728,0,0,393210
BRDA:728,0,1,34012684
BRDA:729,0,0,393210
BRDA:729,0,1,33619474
BRDA:730,0,0,393218
BRDA:730,0,1,33226256
BRDA:731,0,0,0
BRDA:731,0,1,33226256
BRDA:735,0,0,1179631
BRDA:735,0,1,7
BRDA:737,0,0,1
BRDA:737,0,1,1179637
BRDA:739,0,0,0
BRDA:739,0,1,1
BRDA:741,0,0,1
BRDA:741,0,1,1179637
BRDA:743,0,0,0
BRDA:743,0,1,1
BRDA:745,0,0,0
BRDA:745,0,1,1
BRDA:747,0,0,1
BRDA:747,0,1,1179637
BRDA:749,0,0,0
BRDA:749,0,1,1
BRDA:751,0,0,1
BRDA:751,0,1,1179637
BRDA:753,0,0,0
BRDA:753,0,1,1
BRDA:755,0,0,1
BRDA:755,0,1,1179637
BRDA:758,0,0,0
BRDA:758,0,1,1
BRDA:760,0,0,1
BRDA:760,0,1,1179637
BRDA:762,0,0,0
BRDA:762,0,1,1
BRDA:764,0,0,0
BRDA:764,0,1,1
BRDA:766,0,0,1
BRDA:766,0,1,1179637
BRDA:768,0,0,0
BRDA:768,0,1,1
BRDA:770,0,0,0
BRDA:770,0,1,1
BRDA:772,0,0,0
BRDA:772,0,1,1179638
BRDA:779,0,0,33226248
BRDA:779,0,1,8
BRDA:781,0,0,2
BRDA:781,0,1,33226254
BRDA:783,0,0,0
BRDA:783,0,1,2
BRDA:785,0,0,1
BRDA:785,0,1,33226255
BRDA:787,0,0,0
BRDA:787,0,1,1
BRDA:789,0,0,0
BRDA:789,0,1,1
BRDA:791,0,0,1
BRDA:791,0,1,33226255
BRDA:793,0,0,0
BRDA:793,0,1,1
BRDA:795,0,0,1
BRDA:795,0,1,33226255
BRDA:797,0,0,0
BRDA:797,0,1,1
BRDA:799,0,0,1
BRDA:799,0,1,33226255
BRDA:802,0,0,0
BRDA:802,0,1,1
BRDA:804,0,0,1
BRDA:804,0,1,33226255
BRDA:806,0,0,0
BRDA:806,0,1,1
BRDA:808,0,0,0
BRDA:808,0,1,1
BRDA:810,0,0,1
BRDA:810,0,1,33226255
BRDA:812,0,0,0
BRDA:812,0,1,1
BRDA:814,0,0,0
BRDA:814,0,1,1
BRDA:816,0,0,0
BRDA:816,0,1,33226256
BRDA:829,0,0,3932100
BRDA:829,0,1,0
BRDA:831,0,0,0
BRDA:831,0,1,3932100
BRDA:833,0,0,0
BRDA:833,0,1,3932100
BRDA:835,0,0,0
BRDA:835,0,1,3932100
BRDA:837,0,0,0
BRDA:837,0,1,3932100
BRDA:840,0,0,0
BRDA:840,0,1,3932100
BRDA:842,0,0,0
BRDA:842,0,1,3932100
BRDA:844,0,0,-
BRDA:844,0,1,-
BRDA:846,0,0,0
BRDA:846,0,1,3932100
BRF:336
BFH:266
LF:642
LH:570
end_of_record
SF:/workspaces/pep10term/dependencies/pepcore/src/libisa/isa/pep10/pep10.cpp
FN:8,_Z8init_isav
FN:87,_Z9init_mmapv
FN:158,_ZN3isa5pep1014isa_definitionC2Ev
FN:163,_ZN3isa5pep1014isa_definition14get_definitionEv
FN:167,_ZN3isa5pep109as_stringB5cxx11ENS0_20instruction_mnemonicE
FN:170,_ZN3isa5pep109as_stringB5cxx11ENS0_15addressing_modeE
FN:175,_ZN3isa5pep1017is_mnemonic_unaryENS0_20instruction_mnemonicE
FN:195,_ZN3isa5pep1017is_mnemonic_unaryEh
FN:201,_ZN3isa5pep1015is_opcode_unaryENS0_20instruction_mnemonicE
FN:206,_ZN3isa5pep1015is_opcode_unaryEh
FN:212,_ZN3isa5pep108is_storeENS0_20instruction_mnemonicE
FN:220,_ZN3isa5pep108is_storeEh
FN:227,_ZN3isa5pep106opcodeENS0_20instruction_mnemonicE
FN:233,_ZN3isa5pep106opcodeENS0_20instruction_mnemonicENS0_15addressing_modeE
FN:93,pep10.cpp:_ZZ9init_mmapvENK3$_0clEiRKSt4pairIKN3isa5pep1020instruction_mnemonicESt10shared_ptrINS2_22instruction_definitionEEE
FNDA:6,_Z8init_isav
FNDA:6,_Z9init_mmapv
FNDA:6,_ZN3isa5pep1014isa_definitionC2Ev
FNDA:43351392,_ZN3isa5pep1014isa_definition14get_definitionEv
FNDA:597837,_ZN3isa5pep109as_stringB5cxx11ENS0_20instruction_mnemonicE
FNDA:1,_ZN3isa5pep109as_stringB5cxx11ENS0_15addressing_modeE
FNDA:17315,_ZN3isa5pep1017is_mnemonic_unaryENS0_20instruction_mnemonicE
FNDA:0,_ZN3isa5pep1017is_mnemonic_unaryEh
FNDA:43318798,_ZN3isa5pep1015is_opcode_unaryENS0_20instruction_mnemonicE
FNDA:43318798,_ZN3isa5pep1015is_opcode_unaryEh
FNDA:38337994,_ZN3isa5pep108is_storeENS0_20instruction_mnemonicE
FNDA:38337994,_ZN3isa5pep108is_storeEh
FNDA:2108,_ZN3isa5pep106opcodeENS0_20instruction_mnemonicE
FNDA:15581,_ZN3isa5pep106opcodeENS0_20instruction_mnemonicENS0_15addressing_modeE
FNDA:9054,pep10.cpp:_ZZ9init_mmapvENK3$_0clEiRKSt4pairIKN3isa5pep1020instruction_mnemonicESt10shared_ptrINS2_22instruction_definitionEEE
FNF:15
FNH:14
DA:8,6
DA:9,6
DA:10,6
DA:11,6
DA:12,6
DA:13,6
DA:14,6
DA:15,6
DA:16,6
DA:17,6
DA:18,6
DA:19,6
DA:20,6
DA:24,6
DA:25,6
DA:26,6
DA:27,6
DA:28,6
DA:29,6
DA:30,6
DA:31,6
DA:32,6
DA:33,6
DA:34,6
DA:35,6
DA:37,6
DA:38,6
DA:39,6
DA:40,6
DA:41,6
DA:42,6
DA:43,6
DA:44,6
DA:45,6
DA:46,6
DA:48,6
DA:49,6
DA:51,6
DA:52,6
DA:53,6
DA:54,6
DA:56,6
DA:57,6
DA:58,6
DA:59,6
DA:61,6
DA:62,6
DA:63,6
DA:64,6
DA:65,6
DA:66,6
DA:67,6
DA:68,6
DA:69,6
DA:70,6
DA:71,6
DA:72,6
DA:73,6
DA:74,6
DA:76,6
DA:77,6
DA:78,6
DA:79,6
DA:80,348
DA:81,348
DA:82,348
DA:83,6
DA:84,6
DA:87,6
DA:88,6
DA:89,6
DA:90,6
DA:91,1542
DA:92,1536
DA:93,9054
DA:96,1536
DA:97,0
DA:98,0
DA:99,1536
DA:102,1536
DA:104,1536
DA:105,72
DA:106,72
DA:107,126
DA:108,126
DA:109,126
DA:110,120
DA:111,120
DA:112,60
DA:113,0
DA:114,120
DA:115,120
DA:116,48
DA:117,42
DA:118,0
DA:119,48
DA:120,144
DA:121,144
DA:122,1008
DA:123,1008
DA:124,882
DA:125,756
DA:126,630
DA:127,504
DA:128,378
DA:129,252
DA:130,126
DA:131,0
DA:132,1008
DA:133,1008
DA:134,192
DA:135,168
DA:136,144
DA:137,120
DA:138,96
DA:139,72
DA:140,48
DA:141,24
DA:142,0
DA:143,192
DA:144,192
DA:145,42
DA:146,1536
DA:147,1536
DA:148,1536
DA:150,1536
DA:151,6
DA:152,6
DA:158,6
DA:160,6
DA:163,43351392
DA:164,43351392
DA:165,43351392
DA:167,597837
DA:168,597837
DA:169,597837
DA:170,1
DA:171,1
DA:172,1
DA:175,17315
DA:176,17315
DA:177,17315
DA:178,17315
DA:179,3970
DA:180,5279
DA:181,5397
DA:182,12245
DA:183,15220
DA:184,15220
DA:185,1264
DA:186,2095
DA:187,2095
DA:188,0
DA:189,0
DA:190,17315
DA:192,17315
DA:195,0
DA:196,0
DA:197,0
DA:198,0
DA:201,43318798
DA:202,43318798
DA:203,43318798
DA:206,43318798
DA:207,43318798
DA:208,43318798
DA:209,43318798
DA:212,38337994
DA:213,38337994
DA:214,38337994
DA:215,38337994
DA:216,38337994
DA:217,34405894
DA:218,38337994
DA:220,38337994
DA:221,38337994
DA:222,38337994
DA:223,38337994
DA:227,2108
DA:228,2108
DA:229,2108
DA:233,15581
DA:235,15581
DA:236,15581
DA:237,15581
DA:238,15581
DA:239,15581
DA:240,15581
DA:241,15581
DA:242,9533
DA:243,9533
DA:244,9533
DA:245,1795
DA:246,1795
DA:247,1795
DA:248,127
DA:249,127
DA:250,127
DA:251,3572
DA:252,3572
DA:253,3572
DA:254,16
DA:255,16
DA:256,16
DA:257,450
DA:258,450
DA:259,450
DA:260,2
DA:261,2
DA:262,2
DA:263,86
DA:264,86
DA:265,86
DA:266,0
DA:267,0
DA:268,15581
DA:269,15581
DA:270,15581
DA:271,15581
BRDA:80,0,0,348
BRDA:80,0,1,6
BRDA:91,0,0,1536
BRDA:91,0,1,6
BRDA:96,0,0,0
BRDA:96,0,1,1536
BRDA:105,0,0,72
BRDA:105,0,1,1464
BRDA:107,0,0,54
BRDA:107,0,1,1482
BRDA:110,0,0,120
BRDA:110,0,1,1416
BRDA:111,0,0,60
BRDA:111,0,1,60
BRDA:112,0,0,60
BRDA:112,0,1,0
BRDA:115,0,0,48
BRDA:115,0,1,1488
BRDA:116,0,0,6
BRDA:116,0,1,42
BRDA:117,0,0,42
BRDA:117,0,1,0
BRDA:120,0,0,144
BRDA:120,0,1,1392
BRDA:122,0,0,864
BRDA:122,0,1,672
BRDA:123,0,0,126
BRDA:123,0,1,882
BRDA:124,0,0,126
BRDA:124,0,1,756
BRDA:125,0,0,126
BRDA:125,0,1,630
BRDA:126,0,0,126
BRDA:126,0,1,504
BRDA:127,0,0,126
BRDA:127,0,1,378
BRDA:128,0,0,126
BRDA:128,0,1,252
BRDA:129,0,0,126
BRDA:129,0,1,126
BRDA:130,0,0,126
BRDA:130,0,1,0
BRDA:133,0,0,192
BRDA:133,0,1,1344
BRDA:134,0,0,24
BRDA:134,0,1,168
BRDA:135,0,0,24
BRDA:135,0,1,144
BRDA:136,0,0,24
BRDA:136,0,1,120
BRDA:137,0,0,24
BRDA:137,0,1,96
BRDA:138,0,0,24
BRDA:138,0,1,72
BRDA:139,0,0,24
BRDA:139,0,1,48
BRDA:140,0,0,24
BRDA:140,0,1,24
BRDA:141,0,0,24
BRDA:141,0,1,0
BRDA:144,0,0,42
BRDA:144,0,1,1494
BRDA:179,0,0,3970
BRDA:179,0,1,13345
BRDA:180,0,0,1309
BRDA:180,0,1,16006
BRDA:181,0,0,118
BRDA:181,0,1,17197
BRDA:182,0,0,6848
BRDA:182,0,1,10467
BRDA:183,0,0,2975
BRDA:183,0,1,14340
BRDA:185,0,0,1264
BRDA:185,0,1,16051
BRDA:186,0,0,831
BRDA:186,0,1,16484
BRDA:188,0,0,0
BRDA:188,0,1,17315
BRDA:213,0,0,983025
BRDA:213,0,1,37354969
BRDA:214,0,0,983025
BRDA:214,0,1,36371944
BRDA:215,0,0,983025
BRDA:215,0,1,35388919
BRDA:216,0,0,983025
BRDA:216,0,1,34405894
BRDA:238,0,0,4064
BRDA:238,0,1,11517
BRDA:239,0,0,0
BRDA:239,0,1,4064
BRDA:242,0,0,9533
BRDA:242,0,1,6048
BRDA:245,0,0,1795
BRDA:245,0,1,13786
BRDA:248,0,0,127
BRDA:248,0,1,15454
BRDA:251,0,0,3572
BRDA:251,0,1,12009
BRDA:254,0,0,16
BRDA:254,0,1,15565
BRDA:257,0,0,450
BRDA:257,0,1,15131
BRDA:260,0,0,2
BRDA:260,0,1,15579
BRDA:263,0,0,86
BRDA:263,0,1,15495
BRDA:266,0,0,0
BRDA:266,0,1,15581
BRF:108
BFH:100
LF:220
LH:206
end_of_record
SF:/workspaces/pep10term/dependencies/pepcore/src/libisa/isa/pep9/pep9.cpp
FN:8,_Z13pep9_init_isav
FN:89,_Z14pep9_init_mmapv
FN:161,_ZN3isa4pep914isa_definitionC2Ev
FN:166,_ZN3isa4pep914isa_definition14get_definitionEv
FN:171,_ZN3isa4pep99as_stringB5cxx11ENS0_20instruction_mnemonicE
FN:177,_ZN3isa4pep917is_mnemonic_unaryENS0_20instruction_mnemonicE
FN:197,_ZN3isa4pep917is_mnemonic_unaryEh
FN:203,_ZN3isa4pep915is_opcode_unaryENS0_20instruction_mnemonicE
FN:208,_ZN3isa4pep915is_opcode_unaryEh
FN:214,_ZN3isa4pep98is_storeENS0_20instruction_mnemonicE
FN:220,_ZN3isa4pep98is_storeEh
FN:94,pep9.cpp:_ZZ14pep9_init_mmapvENK3$_0clEiRKSt4pairIKN3isa4pep920instruction_mnemonicESt10shared_ptrINS2_22instruction_definitionEEE
FNDA:1,_Z13pep9_init_isav
FNDA:1,_Z14pep9_init_mmapv
FNDA:1,_ZN3isa4pep914isa_definitionC2Ev
FNDA:59,_ZN3isa4pep914isa_definition14get_definitionEv
FNDA:57,_ZN3isa4pep99as_stringB5cxx11ENS0_20instruction_mnemonicE
FNDA:0,_ZN3isa4pep917is_mnemonic_unaryENS0_20instruction_mnemonicE
FNDA:0,_ZN3isa4pep917is_mnemonic_unaryEh
FNDA:0,_ZN3isa4pep915is_opcode_unaryENS0_20instruction_mnemonicE
FNDA:0,_ZN3isa4pep915is_opcode_unaryEh
FNDA:0,_ZN3isa4pep98is_storeENS0_20instruction_mnemonicE
FNDA:0,_ZN3isa4pep98is_storeEh
FNDA:1507,pep9.cpp:_ZZ14pep9_init_mmapvENK3$_0clEiRKSt4pairIKN3isa4pep920instruction_mnemonicESt10shared_ptrINS2_22instruction_definitionEEE
FNF:12
FNH:6
DA:8,1
DA:9,1
DA:11,1
DA:12,1
DA:13,1
DA:14,1
DA:15,1
DA:16,1
DA:17,1
DA:20,1
DA:21,1
DA:22,1
DA:23,1
DA:24,1
DA:25,1
DA:26,1
DA:27,1
DA:28,1
DA:29,1
DA:30,1
DA:31,1
DA:33,1
DA:34,1
DA:35,1
DA:36,1
DA:37,1
DA:38,1
DA:39,1
DA:40,1
DA:41,1
DA:42,1
DA:44,1
DA:45,1
DA:47,1
DA:48,1
DA:49,1
DA:50,1
DA:51,1
DA:53,1
DA:54,1
DA:56,1
DA:57,1
DA:58,1
DA:59,1
DA:60,1
DA:61,1
DA:62,1
DA:63,1
DA:65,1
DA:66,1
DA:67,1
DA:68,1
DA:70,1
DA:71,1
DA:72,1
DA:73,1
DA:75,1
DA:76,1
DA:77,1
DA:78,1
DA:79,1
DA:80,1
DA:81,57
DA:82,57
DA:83,57
DA:84,1
DA:85,1
DA:89,1
DA:90,1
DA:91,1
DA:92,257
DA:93,256
DA:94,1507
DA:98,256
DA:99,0
DA:100,0
DA:101,256
DA:104,256
DA:106,256
DA:107,256
DA:108,12
DA:109,12
DA:110,20
DA:111,20
DA:112,20
DA:113,20
DA:114,20
DA:115,10
DA:116,0
DA:117,20
DA:118,20
DA:119,0
DA:120,0
DA:121,0
DA:122,0
DA:123,56
DA:124,56
DA:125,184
DA:126,184
DA:127,161
DA:128,138
DA:129,115
DA:130,92
DA:131,69
DA:132,46
DA:133,23
DA:134,0
DA:135,184
DA:136,184
DA:137,32
DA:138,28
DA:139,24
DA:140,20
DA:141,16
DA:142,12
DA:143,8
DA:144,4
DA:145,0
DA:146,32
DA:147,32
DA:148,0
DA:149,256
DA:150,256
DA:151,256
DA:153,256
DA:154,1
DA:155,1
DA:161,1
DA:163,1
DA:166,59
DA:167,59
DA:168,59
DA:171,57
DA:172,57
DA:173,57
DA:177,0
DA:178,0
DA:179,0
DA:180,0
DA:181,0
DA:182,0
DA:183,0
DA:184,0
DA:185,0
DA:186,0
DA:187,0
DA:188,0
DA:189,0
DA:190,0
DA:191,0
DA:192,0
DA:194,0
DA:197,0
DA:198,0
DA:199,0
DA:200,0
DA:203,0
DA:204,0
DA:205,0
DA:208,0
DA:209,0
DA:210,0
DA:211,0
DA:214,0
DA:215,0
DA:216,0
DA:217,0
DA:218,0
DA:220,0
DA:221,0
DA:222,0
DA:223,0
BRDA:81,0,0,57
BRDA:81,0,1,1
BRDA:92,0,0,256
BRDA:92,0,1,1
BRDA:98,0,0,0
BRDA:98,0,1,256
BRDA:108,0,0,12
BRDA:108,0,1,244
BRDA:110,0,0,8
BRDA:110,0,1,248
BRDA:113,0,0,20
BRDA:113,0,1,236
BRDA:114,0,0,10
BRDA:114,0,1,10
BRDA:115,0,0,10
BRDA:115,0,1,0
BRDA:118,0,0,0
BRDA:118,0,1,256
BRDA:119,0,0,-
BRDA:119,0,1,-
BRDA:120,0,0,-
BRDA:120,0,1,-
BRDA:123,0,0,56
BRDA:123,0,1,200
BRDA:125,0,0,128
BRDA:125,0,1,128
BRDA:126,0,0,23
BRDA:126,0,1,161
BRDA:127,0,0,23
BRDA:127,0,1,138
BRDA:128,0,0,23
BRDA:128,0,1,115
BRDA:129,0,0,23
BRDA:129,0,1,92
BRDA:130,0,0,23
BRDA:130,0,1,69
BRDA:131,0,0,23
BRDA:131,0,1,46
BRDA:132,0,0,23
BRDA:132,0,1,23
BRDA:133,0,0,23
BRDA:133,0,1,0
BRDA:136,0,0,32
BRDA:136,0,1,224
BRDA:137,0,0,4
BRDA:137,0,1,28
BRDA:138,0,0,4
BRDA:138,0,1,24
BRDA:139,0,0,4
BRDA:139,0,1,20
BRDA:140,0,0,4
BRDA:140,0,1,16
BRDA:141,0,0,4
BRDA:141,0,1,12
BRDA:142,0,0,4
BRDA:142,0,1,8
BRDA:143,0,0,4
BRDA:143,0,1,4
BRDA:144,0,0,4
BRDA:144,0,1,0
BRDA:147,0,0,0
BRDA:147,0,1,256
BRDA:181,0,0,-
BRDA:181,0,1,-
BRDA:182,0,0,-
BRDA:182,0,1,-
BRDA:183,0,0,-
BRDA:183,0,1,-
BRDA:184,0,0,-
BRDA:184,0,1,-
BRDA:185,0,0,-
BRDA:185,0,1,-
BRDA:187,0,0,-
BRDA:187,0,1,-
BRDA:188,0,0,-
BRDA:188,0,1,-
BRDA:190,0,0,-
BRDA:190,0,1,-
BRDA:215,0,0,-
BRDA:215,0,1,-
BRDA:216,0,0,-
BRDA:216,0,1,-
BRF:82
BFH:52
LF:173
LH:126
end_of_record
SF:/workspaces/pep10term/dependencies/pepcore/src/libisa/masm/backend/assign_addr.tpp
FN:17,_ZN4masm7backend12assign_imageItEEbRSt10shared_ptrINS_7project7projectIT_EEERS2_INS_3elf5imageIS5_EEE
FN:137,_ZN4masm7backend23assign_section_backwardItEEbRSt10shared_ptrINS_7project7projectIT_EEERS2_INS_3elf5imageIS5_EEERS2_INS9_12code_sectionIS5_EEERS5_
FN:69,_ZN4masm7backend22assign_section_forwardItEEbRSt10shared_ptrINS_7project7projectIT_EEERS2_INS_3elf5imageIS5_EEERS2_INS9_12code_sectionIS5_EEERS5_
FN:46,_ZN4masm7backend27assign_section_line_numbersItEEbRSt10shared_ptrINS_7project7projectIT_EEERS2_INS_3elf5imageIS5_EEERS2_INS9_12code_sectionIS5_EEERS5_
FNDA:51,_ZN4masm7backend12assign_imageItEEbRSt10shared_ptrINS_7project7projectIT_EEERS2_INS_3elf5imageIS5_EEE
FNDA:129,_ZN4masm7backend23assign_section_backwardItEEbRSt10shared_ptrINS_7project7projectIT_EEERS2_INS_3elf5imageIS5_EEERS2_INS9_12code_sectionIS5_EEERS5_
FNDA:180,_ZN4masm7backend22assign_section_forwardItEEbRSt10shared_ptrINS_7project7projectIT_EEERS2_INS_3elf5imageIS5_EEERS2_INS9_12code_sectionIS5_EEERS5_
FNDA:309,_ZN4masm7backend27assign_section_line_numbersItEEbRSt10shared_ptrINS_7project7projectIT_EEERS2_INS_3elf5imageIS5_EEERS2_INS9_12code_sectionIS5_EEERS5_
FNF:4
FNH:4
DA:17,51
DA:18,51
DA:19,51
DA:20,51
DA:21,51
DA:22,88
DA:23,88
DA:25,88
DA:26,51
DA:27,51
DA:28,51
DA:29,37
DA:30,37
DA:31,37
DA:32,37
DA:33,88
DA:34,88
DA:35,88
DA:37,51
DA:38,51
DA:46,309
DA:47,309
DA:48,309
DA:49,309
DA:50,27061
DA:51,27061
DA:52,27061
DA:54,27061
DA:55,221
DA:56,221
DA:57,26840
DA:58,27061
DA:59,27061
DA:60,309
DA:61,309
DA:69,180
DA:70,180
DA:71,180
DA:72,1582
DA:73,1582
DA:76,1582
DA:77,559
DA:78,0
DA:79,0
DA:80,0
DA:81,0
DA:82,0
DA:83,559
DA:86,1582
DA:87,233
DA:88,233
DA:90,1349
DA:91,0
DA:92,0
DA:93,0
DA:94,0
DA:95,0
DA:96,1349
DA:97,0
DA:98,0
DA:99,0
DA:100,0
DA:101,0
DA:104,1582
DA:105,0
DA:106,0
DA:109,1582
DA:110,143
DA:111,143
DA:112,143
DA:114,1439
DA:116,1439
DA:117,1439
DA:118,1439
DA:119,0
DA:120,0
DA:121,0
DA:122,0
DA:123,0
DA:124,0
DA:125,1439
DA:126,1439
DA:127,1582
DA:128,180
DA:129,180
DA:137,129
DA:138,129
DA:139,129
DA:140,25479
DA:141,25479
DA:144,25479
DA:145,10338
DA:146,1
DA:147,1
DA:148,1
DA:149,1
DA:150,1
DA:151,10338
DA:154,25479
DA:155,5153
DA:156,5153
DA:158,20326
DA:159,4
DA:160,4
DA:161,4
DA:162,4
DA:163,4
DA:164,20322
DA:165,0
DA:166,0
DA:167,0
DA:168,0
DA:169,0
DA:172,25479
DA:173,78
DA:174,78
DA:175,78
DA:177,25401
DA:179,25401
DA:180,25401
DA:181,0
DA:182,0
DA:183,0
DA:184,0
DA:185,0
DA:186,0
DA:187,25401
DA:188,25401
DA:189,25479
DA:190,129
DA:191,129
BRDA:20,0,0,37
BRDA:20,0,1,14
BRDA:22,0,0,88
BRDA:22,0,1,51
BRDA:25,0,0,51
BRDA:25,0,1,37
BRDA:50,0,0,27061
BRDA:50,0,1,309
BRDA:54,0,0,221
BRDA:54,0,1,26840
BRDA:72,0,0,1582
BRDA:72,0,1,180
BRDA:76,0,0,1314
BRDA:76,0,1,268
BRDA:76,1,2,559
BRDA:76,1,3,755
BRDA:77,0,0,0
BRDA:77,0,1,559
BRDA:86,0,0,233
BRDA:86,0,1,1349
BRDA:86,1,2,233
BRDA:86,1,3,0
BRDA:90,0,0,0
BRDA:90,0,1,1349
BRDA:90,1,2,-
BRDA:90,1,3,-
BRDA:96,0,0,0
BRDA:96,0,1,1349
BRDA:96,1,2,-
BRDA:96,1,3,-
BRDA:104,0,0,0
BRDA:104,0,1,1582
BRDA:109,0,0,143
BRDA:109,0,1,1439
BRDA:118,0,0,0
BRDA:118,0,1,1439
BRDA:140,0,0,25479
BRDA:140,0,1,129
BRDA:144,0,0,20402
BRDA:144,0,1,5077
BRDA:144,1,2,10338
BRDA:144,1,3,10064
BRDA:145,0,0,1
BRDA:145,0,1,10337
BRDA:154,0,0,5157
BRDA:154,0,1,20322
BRDA:154,1,2,5153
BRDA:154,1,3,4
BRDA:158,0,0,4
BRDA:158,0,1,20322
BRDA:158,1,2,4
BRDA:158,1,3,0
BRDA:164,0,0,0
BRDA:164,0,1,20322
BRDA:164,1,2,-
BRDA:164,1,3,-
BRDA:172,0,0,78
BRDA:172,0,1,25401
BRDA:180,0,0,0
BRDA:180,0,1,25401
BRF:60
BFH:45
LF:131
LH:97
end_of_record
SF:/workspaces/pep10term/dependencies/pepcore/src/libisa/masm/backend/sanity.tpp
FN:6,_Z26whole_program_sanity_fixupItEbRSt10shared_ptrIN4masm7project7projectItEEERS0_INS1_3elf12code_sectionItEEE
FNDA:94,_Z26whole_program_sanity_fixupItEbRSt10shared_ptrIN4masm7project7projectItEEERS0_INS1_3elf12code_sectionItEEE
FNF:1
FNH:1
DA:6,94
DA:7,94
DA:8,94
DA:9,94
DA:11,26222
DA:12,26222
DA:13,26222
DA:14,26222
DA:19,94
DA:20,94
DA:21,2
DA:22,2
DA:23,2
DA:24,2
DA:25,2
DA:26,92
DA:27,0
DA:28,0
DA:29,0
DA:30,0
DA:31,0
DA:32,0
DA:33,0
DA:34,0
DA:35,0
DA:36,92
DA:37,1
DA:38,3
DA:39,3
DA:40,1
DA:41,1
DA:42,1
DA:43,1
DA:44,3
DA:45,1
DA:47,91
DA:48,2
DA:49,2
DA:50,2
DA:51,2
DA:52,2
DA:54,89
DA:55,0
DA:56,0
DA:57,0
DA:58,0
DA:59,0
DA:60,0
DA:61,0
DA:62,0
DA:63,0
DA:67,94
DA:68,94
DA:69,958
DA:70,958
DA:71,53
DA:72,53
DA:73,53
DA:74,53
DA:75,958
DA:77,56
DA:79,25102
DA:80,25102
DA:81,898
DA:82,0
DA:83,898
DA:84,898
DA:85,25102
DA:88,56
DA:89,0
DA:90,0
DA:92,0
DA:93,0
DA:94,0
DA:95,0
DA:96,0
DA:97,0
DA:98,56
DA:99,94
DA:100,94
BRDA:11,0,0,26222
BRDA:11,0,1,94
BRDA:12,0,0,55
BRDA:12,0,1,26167
BRDA:13,0,0,92
BRDA:13,0,1,26130
BRDA:20,0,0,2
BRDA:20,0,1,92
BRDA:26,0,0,0
BRDA:26,0,1,92
BRDA:28,0,0,-
BRDA:28,0,1,-
BRDA:29,0,0,-
BRDA:29,0,1,-
BRDA:36,0,0,53
BRDA:36,0,1,39
BRDA:36,1,2,1
BRDA:36,1,3,52
BRDA:38,0,0,3
BRDA:38,0,1,1
BRDA:39,0,0,1
BRDA:39,0,1,2
BRDA:47,0,0,39
BRDA:47,0,1,52
BRDA:47,1,2,2
BRDA:47,1,3,37
BRDA:54,0,0,0
BRDA:54,0,1,89
BRDA:54,1,2,-
BRDA:54,1,3,-
BRDA:56,0,0,-
BRDA:56,0,1,-
BRDA:57,0,0,-
BRDA:57,0,1,-
BRDA:68,0,0,56
BRDA:68,0,1,38
BRDA:69,0,0,958
BRDA:69,0,1,3
BRDA:70,0,0,53
BRDA:70,0,1,905
BRDA:79,0,0,25102
BRDA:79,0,1,56
BRDA:80,0,0,898
BRDA:80,0,1,24204
BRDA:81,0,0,0
BRDA:81,0,1,898
BRDA:88,0,0,0
BRDA:88,0,1,56
BRDA:92,0,0,-
BRDA:92,0,1,-
BRDA:93,0,0,-
BRDA:93,0,1,-
BRF:52
BFH:34
LF:80
LH:53
end_of_record
SF:/workspaces/pep10term/dependencies/pepcore/src/libisa/masm/conversion.cpp
FN:4,_ZN4masm19startsWithHexPrefixERKNSt7__cxx1112basic_stringIcSt11char_traitsIcESaIcEEE
FN:9,_ZN4masm18byte_string_lengthERKNSt7__cxx1112basic_stringIcSt11char_traitsIcESaIcEEE
FN:23,_ZN4masm11byte_vectorERKNSt7__cxx1112basic_stringIcSt11char_traitsIcESaIcEEE
FNDA:1533,_ZN4masm19startsWithHexPrefixERKNSt7__cxx1112basic_stringIcSt11char_traitsIcESaIcEEE
FNDA:2549,_ZN4masm18byte_string_lengthERKNSt7__cxx1112basic_stringIcSt11char_traitsIcESaIcEEE
FNDA:241,_ZN4masm11byte_vectorERKNSt7__cxx1112basic_stringIcSt11char_traitsIcESaIcEEE
FNF:3
FNH:3
DA:4,1533
DA:5,1533
DA:6,1533
DA:9,2549
DA:10,2549
DA:11,2549
DA:12,2549
DA:13,2549
DA:14,29543
DA:15,26994
DA:16,26994
DA:17,26994
DA:18,2549
DA:19,2547
DA:20,2549
DA:23,241
DA:24,241
DA:25,241
DA:26,241
DA:27,241
DA:28,6633
DA:29,6392
DA:30,6392
DA:31,6392
DA:32,241
DA:33,241
DA:34,241
BRDA:5,0,0,1170
BRDA:5,0,1,363
BRDA:5,1,2,237
BRDA:5,1,3,933
BRDA:5,2,4,0
BRDA:5,2,5,237
BRDA:5,3,6,0
BRDA:5,3,7,237
BRDA:14,0,0,26994
BRDA:14,0,1,2549
BRDA:18,0,0,2
BRDA:18,0,1,2547
BRDA:28,0,0,6392
BRDA:28,0,1,241
BRDA:32,0,0,0
BRDA:32,0,1,241
BRF:16
BFH:13
LF:27
LH:27
end_of_record
SF:/workspaces/pep10term/dependencies/pepcore/src/libisa/masm/conversion.hpp
FN:71,_ZN4masm27unqouted_string_to_integralItEEbRKNSt7__cxx1112basic_stringIcSt11char_traitsIcESaIcEEEiRT_
FN:16,_ZN4masm20parse_byte_characterIN9__gnu_cxx17__normal_iteratorIPKcNSt7__cxx1112basic_stringIcSt11char_traitsIcESaIcEEEEEEEbRT_SC_Rh
FNDA:1533,_ZN4masm27unqouted_string_to_integralItEEbRKNSt7__cxx1112basic_stringIcSt11char_traitsIcESaIcEEEiRT_
FNDA:34961,_ZN4masm20parse_byte_characterIN9__gnu_cxx17__normal_iteratorIPKcNSt7__cxx1112basic_stringIcSt11char_traitsIcESaIcEEEEEEEbRT_SC_Rh
FNF:2
FNH:2
DA:16,34961
DA:18,34961
DA:19,0
DA:20,0
DA:21,34961
DA:22,34961
DA:23,2060
DA:24,2060
DA:25,2060
DA:26,33
DA:27,33
DA:28,2027
DA:29,33
DA:30,33
DA:31,1994
DA:32,674
DA:33,674
DA:34,1320
DA:35,33
DA:36,33
DA:37,1287
DA:38,33
DA:39,33
DA:40,1254
DA:41,33
DA:42,33
DA:43,1221
DA:45,1221
DA:46,1219
DA:47,1219
DA:48,1219
DA:49,1219
DA:50,1219
DA:51,1219
DA:52,1221
DA:53,0
DA:55,0
DA:56,0
DA:57,0
DA:58,2060
DA:59,32901
DA:60,32901
DA:61,32901
DA:62,34959
DA:63,34961
DA:71,1533
DA:74,1533
DA:75,1533
DA:76,1533
DA:77,1533
DA:79,1533
DA:80,1533
DA:82,1533
DA:83,0
DA:84,0
DA:87,1533
DA:89,3108
DA:90,1575
DA:91,1575
DA:92,1575
DA:93,1575
DA:96,1533
DA:98,1533
DA:99,1533
BRDA:18,0,0,0
BRDA:18,0,1,34961
BRDA:22,0,0,2060
BRDA:22,0,1,32901
BRDA:23,0,0,0
BRDA:23,0,1,2060
BRDA:25,0,0,33
BRDA:25,0,1,2027
BRDA:28,0,0,33
BRDA:28,0,1,1994
BRDA:31,0,0,674
BRDA:31,0,1,1320
BRDA:34,0,0,33
BRDA:34,0,1,1287
BRDA:37,0,0,33
BRDA:37,0,1,1254
BRDA:40,0,0,33
BRDA:40,0,1,1221
BRDA:43,0,0,1221
BRDA:43,0,1,0
BRDA:43,1,2,-
BRDA:43,1,3,-
BRDA:45,0,0,2
BRDA:45,0,1,1219
BRDA:50,0,0,0
BRDA:50,0,1,1219
BRDA:82,0,0,0
BRDA:82,0,1,1533
BRDA:89,0,0,1575
BRDA:89,0,1,1533
BRDA:89,1,2,3108
BRDA:89,1,3,0
BRDA:89,2,4,1575
BRDA:89,2,5,1533
BRDA:96,0,0,0
BRDA:96,0,1,1533
BRF:36
BFH:27
LF:64
LH:56
end_of_record
SF:/workspaces/pep10term/dependencies/pepcore/src/libisa/masm/driver.tpp
FN:10,_ZN4masm6driverItNS_7project15toolchain_stageEE11assemble_osB5cxx11ERSt10shared_ptrINS1_7projectItEEES4_INS1_11source_fileEES2_
FN:51,_ZN4masm6driverItNS_7project15toolchain_stageEE7do_loopB5cxx11ERSt10shared_ptrINS1_7projectItEEES2_
FN:43,_ZN4masm6driverItNS_7project15toolchain_stageEE18register_transformESt8functionIFSt5tupleIJbNSt7__cxx114listISt4pairIS2_St7variantIJSt10shared_ptrINS1_11source_fileEESA_INS_3elf12code_sectionItEEESA_INSD_5imageItEEEEEESaISL_EEEEERSA_INS1_7projectItEEERNS7_ISK_SaISK_EEEEES2_
FN:23,_ZN4masm6driverItNS_7project15toolchain_stageEE14assemble_jointB5cxx11ERSt10shared_ptrINS1_7projectItEEES4_INS1_11source_fileEESA_S2_
FNDA:116,_ZN4masm6driverItNS_7project15toolchain_stageEE11assemble_osB5cxx11ERSt10shared_ptrINS1_7projectItEEES4_INS1_11source_fileEES2_
FNDA:192,_ZN4masm6driverItNS_7project15toolchain_stageEE7do_loopB5cxx11ERSt10shared_ptrINS1_7projectItEEES2_
FNDA:871,_ZN4masm6driverItNS_7project15toolchain_stageEE18register_transformESt8functionIFSt5tupleIJbNSt7__cxx114listISt4pairIS2_St7variantIJSt10shared_ptrINS1_11source_fileEESA_INS_3elf12code_sectionItEEESA_INSD_5imageItEEEEEESaISL_EEEEERSA_INS1_7projectItEEERNS7_ISK_SaISK_EEEEES2_
FNDA:38,_ZN4masm6driverItNS_7project15toolchain_stageEE14assemble_jointB5cxx11ERSt10shared_ptrINS1_7projectItEEES4_INS1_11source_fileEESA_S2_
FNF:4
FNH:4
DA:10,116
DA:11,116
DA:13,116
DA:14,116
DA:15,116
DA:16,116
DA:17,116
DA:23,38
DA:24,38
DA:25,0
DA:26,38
DA:27,38
DA:28,38
DA:30,38
DA:31,38
DA:33,38
DA:34,38
DA:35,38
DA:37,38
DA:38,38
DA:43,871
DA:44,871
DA:45,871
DA:46,871
DA:47,871
DA:51,192
DA:52,192
DA:54,1220
DA:57,1028
DA:58,1028
DA:61,1028
DA:64,885
DA:65,885
DA:67,0
DA:68,0
DA:69,885
DA:70,885
DA:71,885
DA:72,52
DA:75,52
DA:76,52
DA:77,833
DA:78,1780
DA:79,1780
DA:80,1780
DA:81,1780
DA:82,833
DA:83,885
DA:84,885
DA:85,192
DA:86,140
DA:87,192
BRDA:31,0,0,0
BRDA:31,0,1,38
BRDA:44,0,0,0
BRDA:44,0,1,871
BRDA:54,0,0,1028
BRDA:54,0,1,192
BRDA:61,0,0,143
BRDA:61,0,1,885
BRDA:65,0,0,0
BRDA:65,0,1,885
BRDA:71,0,0,52
BRDA:71,0,1,833
BRDA:78,0,0,1780
BRDA:78,0,1,833
BRDA:79,0,0,836
BRDA:79,0,1,944
BRDA:85,0,0,52
BRDA:85,0,1,140
BRF:18
BFH:15
LF:52
LH:49
end_of_record
SF:/workspaces/pep10term/dependencies/pepcore/src/libisa/masm/elf/pack.tpp
FN:10,_ZN4masm3elf10pack_imageItEEbRSt10shared_ptrINS_7project7projectIT_EEERS2_INS0_5imageIS5_EEE
FNDA:44,_ZN4masm3elf10pack_imageItEEbRSt10shared_ptrINS_7project7projectIT_EEERS2_INS0_5imageIS5_EEE
FNF:1
FNH:1
DA:10,44
DA:11,44
DA:12,44
DA:14,44
DA:15,44
DA:16,44
DA:17,44
DA:18,44
DA:19,44
DA:20,88
DA:21,88
DA:22,81
DA:23,81
DA:24,81
DA:25,81
DA:26,81
DA:27,81
DA:28,81
DA:30,81
DA:32,81
DA:33,1287
DA:34,1287
DA:35,81
DA:36,81
DA:37,81
DA:38,81
DA:39,1287
DA:40,81
DA:43,81
DA:44,81
DA:45,81
DA:47,81
DA:50,81
DA:51,81
DA:52,81
DA:53,81
DA:54,81
DA:55,81
DA:57,81
DA:58,5469
DA:59,5469
DA:60,5469
DA:61,5040
DA:63,5469
DA:64,5469
DA:65,81
DA:68,44
DA:69,44
DA:71,44
DA:72,44
DA:73,44
BRDA:20,0,0,88
BRDA:20,0,1,44
BRDA:21,0,0,7
BRDA:21,0,1,81
BRDA:32,0,0,1287
BRDA:32,0,1,0
BRDA:34,0,0,1206
BRDA:34,0,1,81
BRDA:58,0,0,5469
BRDA:58,0,1,81
BRDA:60,0,0,429
BRDA:60,0,1,5040
BRDA:61,0,0,83
BRDA:61,0,1,4957
BRF:14
BFH:13
LF:51
LH:51
end_of_record
SF:/workspaces/pep10term/dependencies/pepcore/src/libisa/masm/frontend/imagize.tpp
FN:39,_ZN4masm8frontend13text_to_imageItEESt10shared_ptrINS_3elf5imageIT_EEERS2_INS_7project7projectIS5_EEES2_INS8_11source_fileEESE_
FN:11,_Z20text_to_image_helperItESt10shared_ptrIN4masm3elf17top_level_sectionIT_EEES0_INS2_5imageIS4_EEES0_INS1_7project11source_fileEEiNSt7__cxx1112basic_stringIcSt11char_traitsIcESaIcEEE
FNDA:154,_ZN4masm8frontend13text_to_imageItEESt10shared_ptrINS_3elf5imageIT_EEERS2_INS_7project7projectIS5_EEES2_INS8_11source_fileEESE_
FNDA:192,_Z20text_to_image_helperItESt10shared_ptrIN4masm3elf17top_level_sectionIT_EEES0_INS2_5imageIS4_EEES0_INS1_7project11source_fileEEiNSt7__cxx1112basic_stringIcSt11char_traitsIcESaIcEEE
FNF:2
FNH:2
DA:11,192
DA:13,192
DA:14,192
DA:15,192
DA:16,192
DA:17,192
DA:18,192
DA:19,192
DA:20,192
DA:23,192
DA:25,192
DA:26,192
DA:27,192
DA:29,26367
DA:30,192
DA:32,192
DA:33,192
DA:39,154
DA:41,154
DA:42,154
DA:45,154
DA:46,0
DA:47,154
DA:49,154
DA:50,154
DA:51,38
DA:52,38
DA:53,38
DA:54,154
DA:55,154
DA:56,154
DA:57,154
DA:58,154
BRDA:25,0,0,192
BRDA:25,0,1,0
BRDA:29,0,0,26367
BRDA:29,0,1,192
BRDA:50,0,0,38
BRDA:50,0,1,116
BRF:6
BFH:5
LF:33
LH:32
end_of_record
SF:/workspaces/pep10term/dependencies/pepcore/src/libisa/masm/frontend/preprocesser.hpp
FN:16,_ZN4masm8frontend12preprocessorItN4asmb5pep109tokenizerIN5boost6spirit3lex7lexertl11actor_lexerINS8_5tokenIN9__gnu_cxx17__normal_iteratorIPcNSt7__cxx1112basic_stringIcSt11char_traitsIcESaIcEEEEENS5_3mpl6vectorISJ_xN4mpl_2naESO_SO_SO_SO_SO_SO_SO_SO_SO_SO_SO_SO_SO_SO_SO_SO_SO_EENSN_5bool_ILb1EEEmEESK_NS8_7functorISS_NS8_6detail4dataESK_SR_SR_EEEEEEEC2Ev
FN:18,_ZN4masm8frontend12preprocessorItN4asmb5pep109tokenizerIN5boost6spirit3lex7lexertl11actor_lexerINS8_5tokenIN9__gnu_cxx17__normal_iteratorIPcNSt7__cxx1112basic_stringIcSt11char_traitsIcESaIcEEEEENS5_3mpl6vectorISJ_xN4mpl_2naESO_SO_SO_SO_SO_SO_SO_SO_SO_SO_SO_SO_SO_SO_SO_SO_SO_EENSN_5bool_ILb1EEEmEESK_NS8_7functorISS_NS8_6detail4dataESK_SR_SR_EEEEEEED2Ev
FNDA:153,_ZN4masm8frontend12preprocessorItN4asmb5pep109tokenizerIN5boost6spirit3lex7lexertl11actor_lexerINS8_5tokenIN9__gnu_cxx17__normal_iteratorIPcNSt7__cxx1112basic_stringIcSt11char_traitsIcESaIcEEEEENS5_3mpl6vectorISJ_xN4mpl_2naESO_SO_SO_SO_SO_SO_SO_SO_SO_SO_SO_SO_SO_SO_SO_SO_SO_EENSN_5bool_ILb1EEEmEESK_NS8_7functorISS_NS8_6detail4dataESK_SR_SR_EEEEEEEC2Ev
FNDA:153,_ZN4masm8frontend12preprocessorItN4asmb5pep109tokenizerIN5boost6spirit3lex7lexertl11actor_lexerINS8_5tokenIN9__gnu_cxx17__normal_iteratorIPcNSt7__cxx1112basic_stringIcSt11char_traitsIcESaIcEEEEENS5_3mpl6vectorISJ_xN4mpl_2naESO_SO_SO_SO_SO_SO_SO_SO_SO_SO_SO_SO_SO_SO_SO_SO_SO_EENSN_5bool_ILb1EEEmEESK_NS8_7functorISS_NS8_6detail4dataESK_SR_SR_EEEEEEED2Ev
FNF:2
FNH:2
DA:16,153
DA:18,153
BRF:0
BFH:0
LF:2
LH:2
end_of_record
SF:/workspaces/pep10term/dependencies/pepcore/src/libisa/masm/frontend/preprocesser.tpp
FN:17,_ZN4masm8frontend12preprocessorItN4asmb5pep109tokenizerIN5boost6spirit3lex7lexertl11actor_lexerINS8_5tokenIN9__gnu_cxx17__normal_iteratorIPcNSt7__cxx1112basic_stringIcSt11char_traitsIcESaIcEEEEENS5_3mpl6vectorISJ_xN4mpl_2naESO_SO_SO_SO_SO_SO_SO_SO_SO_SO_SO_SO_SO_SO_SO_SO_SO_EENSN_5bool_ILb1EEEmEESK_NS8_7functorISS_NS8_6detail4dataESK_SR_SR_EEEEEEE10preprocessERSt10shared_ptrINS_7project7projectItEEERS10_INS_3elf12code_sectionItEEE
FNDA:437,_ZN4masm8frontend12preprocessorItN4asmb5pep109tokenizerIN5boost6spirit3lex7lexertl11actor_lexerINS8_5tokenIN9__gnu_cxx17__normal_iteratorIPcNSt7__cxx1112basic_stringIcSt11char_traitsIcESaIcEEEEENS5_3mpl6vectorISJ_xN4mpl_2naESO_SO_SO_SO_SO_SO_SO_SO_SO_SO_SO_SO_SO_SO_SO_SO_SO_EENSN_5bool_ILb1EEEmEESK_NS8_7functorISS_NS8_6detail4dataESK_SR_SR_EEEEEEE10preprocessERSt10shared_ptrINS_7project7projectItEEERS10_INS_3elf12code_sectionItEEE
FNF:1
FNH:1
DA:17,437
DA:18,437
DA:19,437
DA:20,437
DA:23,437
DA:24,437
DA:25,437
DA:26,437
DA:27,437
DA:28,437
DA:29,437
DA:31,437
DA:32,0
DA:34,0
DA:39,437
DA:40,437
DA:41,248
DA:42,248
DA:44,189
DA:52,437
DA:55,437
DA:56,3
DA:59,3
DA:60,3
DA:61,3
DA:62,3
DA:63,3
DA:64,3
DA:66,3
DA:67,3
DA:68,3
DA:70,434
DA:75,27260
DA:76,27260
DA:79,27260
DA:82,27260
DA:83,27260
DA:87,251
DA:90,251
DA:91,397
DA:92,397
DA:93,397
DA:95,297
DA:96,26
DA:97,26
DA:98,26
DA:99,1
DA:100,1
DA:101,1
DA:102,270
DA:103,270
DA:104,270
DA:105,297
DA:107,297
DA:108,397
DA:110,397
DA:111,397
DA:114,251
DA:116,251
DA:117,251
DA:118,0
DA:119,0
DA:120,0
DA:122,251
DA:124,251
DA:129,434
DA:130,434
DA:131,434
DA:132,251
DA:133,1
DA:134,1
DA:135,1
DA:136,1
DA:137,1
DA:138,250
DA:139,2
DA:140,2
DA:141,2
DA:142,2
DA:143,2
DA:144,248
DA:146,248
DA:148,248
DA:149,248
DA:150,251
DA:153,434
DA:154,434
BRDA:40,0,0,248
BRDA:40,0,1,189
BRDA:44,0,0,189
BRDA:44,0,1,0
BRDA:55,0,0,3
BRDA:55,0,1,434
BRDA:62,0,0,3
BRDA:62,0,1,3
BRDA:63,0,0,3
BRDA:63,0,1,0
BRDA:75,0,0,27260
BRDA:75,0,1,434
BRDA:83,0,0,27009
BRDA:83,0,1,251
BRDA:93,0,0,297
BRDA:93,0,1,100
BRDA:96,0,0,26
BRDA:96,0,1,271
BRDA:99,0,0,1
BRDA:99,0,1,296
BRDA:102,0,0,270
BRDA:102,0,1,27
BRDA:110,0,0,251
BRDA:110,0,1,146
BRDA:111,0,0,146
BRDA:111,0,1,0
BRDA:117,0,0,0
BRDA:117,0,1,251
BRDA:131,0,0,251
BRDA:131,0,1,434
BRDA:132,0,0,1
BRDA:132,0,1,250
BRDA:138,0,0,2
BRDA:138,0,1,248
BRDA:153,0,0,0
BRDA:153,0,1,434
BRDA:153,1,2,3
BRDA:153,1,3,431
BRF:38
BFH:33
LF:87
LH:82
end_of_record
SF:/workspaces/pep10term/dependencies/pepcore/src/libisa/masm/frontend/tokenizer.hpp
FN:25,_ZN4masm8frontend9tokenizerItN4asmb5pep109tokenizerIN5boost6spirit3lex7lexertl11actor_lexerINS8_5tokenIN9__gnu_cxx17__normal_iteratorIPcNSt7__cxx1112basic_stringIcSt11char_traitsIcESaIcEEEEENS5_3mpl6vectorISJ_xN4mpl_2naESO_SO_SO_SO_SO_SO_SO_SO_SO_SO_SO_SO_SO_SO_SO_SO_SO_EENSN_5bool_ILb1EEEmEESK_NS8_7functorISS_NS8_6detail4dataESK_SR_SR_EEEEEEEC2Ev
FN:27,_ZN4masm8frontend9tokenizerItN4asmb5pep109tokenizerIN5boost6spirit3lex7lexertl11actor_lexerINS8_5tokenIN9__gnu_cxx17__normal_iteratorIPcNSt7__cxx1112basic_stringIcSt11char_traitsIcESaIcEEEEENS5_3mpl6vectorISJ_xN4mpl_2naESO_SO_SO_SO_SO_SO_SO_SO_SO_SO_SO_SO_SO_SO_SO_SO_SO_EENSN_5bool_ILb1EEEmEESK_NS8_7functorISS_NS8_6detail4dataESK_SR_SR_EEEEEEED2Ev
FNDA:154,_ZN4masm8frontend9tokenizerItN4asmb5pep109tokenizerIN5boost6spirit3lex7lexertl11actor_lexerINS8_5tokenIN9__gnu_cxx17__normal_iteratorIPcNSt7__cxx1112basic_stringIcSt11char_traitsIcESaIcEEEEENS5_3mpl6vectorISJ_xN4mpl_2naESO_SO_SO_SO_SO_SO_SO_SO_SO_SO_SO_SO_SO_SO_SO_SO_SO_EENSN_5bool_ILb1EEEmEESK_NS8_7functorISS_NS8_6detail4dataESK_SR_SR_EEEEEEEC2Ev
FNDA:154,_ZN4masm8frontend9tokenizerItN4asmb5pep109tokenizerIN5boost6spirit3lex7lexertl11actor_lexerINS8_5tokenIN9__gnu_cxx17__normal_iteratorIPcNSt7__cxx1112basic_stringIcSt11char_traitsIcESaIcEEEEENS5_3mpl6vectorISJ_xN4mpl_2naESO_SO_SO_SO_SO_SO_SO_SO_SO_SO_SO_SO_SO_SO_SO_SO_SO_EENSN_5bool_ILb1EEEmEESK_NS8_7functorISS_NS8_6detail4dataESK_SR_SR_EEEEEEED2Ev
FNF:2
FNH:2
DA:25,154
DA:27,154
BRF:0
BFH:0
LF:2
LH:2
end_of_record
SF:/workspaces/pep10term/dependencies/pepcore/src/libisa/masm/frontend/tokenizer.tpp
FN:17,_ZN4masm8frontend9tokenizerItN4asmb5pep109tokenizerIN5boost6spirit3lex7lexertl11actor_lexerINS8_5tokenIN9__gnu_cxx17__normal_iteratorIPcNSt7__cxx1112basic_stringIcSt11char_traitsIcESaIcEEEEENS5_3mpl6vectorISJ_xN4mpl_2naESO_SO_SO_SO_SO_SO_SO_SO_SO_SO_SO_SO_SO_SO_SO_SO_SO_EENSN_5bool_ILb1EEEmEESK_NS8_7functorISS_NS8_6detail4dataESK_SR_SR_EEEEEEE8tokenizeERSt10shared_ptrINS_7project7projectItEEERS10_INS_3elf12code_sectionItEEE
FN:55,_ZN4masm8frontend8tokenizeIN4asmb5pep109tokenizerIN5boost6spirit3lex7lexertl11actor_lexerINS8_5tokenIN9__gnu_cxx17__normal_iteratorIPcNSt7__cxx1112basic_stringIcSt11char_traitsIcESaIcEEEEENS5_3mpl6vectorISJ_xN4mpl_2naESO_SO_SO_SO_SO_SO_SO_SO_SO_SO_SO_SO_SO_SO_SO_SO_SO_EENSN_5bool_ILb1EEEmEESK_NS8_7functorISS_NS8_6detail4dataESK_SR_SR_EEEEEEEENS0_15tokenize_resultINT_10token_typeEEESJ_RS10_
FN:82,_ZN4masm8frontend5matchINS0_10token_typeEEESt5tupleIJbT_NSt7__cxx1112basic_stringIcSt11char_traitsIcESaIcEEEEERNSt6vectorISt4pairIS4_SA_ESaISE_EE8iteratorERKSH_St3setIS2_St4lessIS2_ESaIS2_EEb
FNDA:440,_ZN4masm8frontend9tokenizerItN4asmb5pep109tokenizerIN5boost6spirit3lex7lexertl11actor_lexerINS8_5tokenIN9__gnu_cxx17__normal_iteratorIPcNSt7__cxx1112basic_stringIcSt11char_traitsIcESaIcEEEEENS5_3mpl6vectorISJ_xN4mpl_2naESO_SO_SO_SO_SO_SO_SO_SO_SO_SO_SO_SO_SO_SO_SO_SO_SO_EENSN_5bool_ILb1EEEmEESK_NS8_7functorISS_NS8_6detail4dataESK_SR_SR_EEEEEEE8tokenizeERSt10shared_ptrINS_7project7projectItEEERS10_INS_3elf12code_sectionItEEE
FNDA:27353,_ZN4masm8frontend8tokenizeIN4asmb5pep109tokenizerIN5boost6spirit3lex7lexertl11actor_lexerINS8_5tokenIN9__gnu_cxx17__normal_iteratorIPcNSt7__cxx1112basic_stringIcSt11char_traitsIcESaIcEEEEENS5_3mpl6vectorISJ_xN4mpl_2naESO_SO_SO_SO_SO_SO_SO_SO_SO_SO_SO_SO_SO_SO_SO_SO_SO_EENSN_5bool_ILb1EEEmEESK_NS8_7functorISS_NS8_6detail4dataESK_SR_SR_EEEEEEEENS0_15tokenize_resultINT_10token_typeEEESJ_RS10_
FNDA:251069,_ZN4masm8frontend5matchINS0_10token_typeEEESt5tupleIJbT_NSt7__cxx1112basic_stringIcSt11char_traitsIcESaIcEEEEERNSt6vectorISt4pairIS4_SA_ESaISE_EE8iteratorERKSH_St3setIS2_St4lessIS2_ESaIS2_EEb
FNF:3
FNH:3
DA:17,440
DA:18,440
DA:21,0
DA:22,440
DA:24,440
DA:25,440
DA:26,27270
DA:31,27270
DA:32,903
DA:33,885
DA:34,885
DA:35,903
DA:37,27270
DA:39,27270
DA:40,2
DA:41,2
DA:43,2
DA:45,2
DA:46,27268
DA:47,27268
DA:48,27268
DA:49,27270
DA:50,440
DA:51,440
DA:55,27353
DA:56,27353
DA:57,27353
DA:58,27353
DA:60,27353
DA:61,142296
DA:62,114953
DA:63,10
DA:64,10
DA:65,10
DA:66,10
DA:68,114943
DA:69,114943
DA:70,114943
DA:71,114943
DA:72,114943
DA:73,114943
DA:74,27353
DA:75,27353
DA:76,27353
DA:82,251069
DA:83,251069
DA:84,251069
DA:85,251069
DA:86,251069
DA:87,120646
DA:88,120646
DA:89,120646
DA:90,120646
DA:91,130423
DA:92,251069
BRDA:26,0,0,27270
BRDA:26,0,1,440
BRDA:31,0,0,903
BRDA:31,0,1,26367
BRDA:32,0,0,885
BRDA:32,0,1,903
BRDA:39,0,0,2
BRDA:39,0,1,27268
BRDA:61,0,0,114953
BRDA:61,0,1,27343
BRDA:62,0,0,10
BRDA:62,0,1,114943
BRDA:84,0,0,0
BRDA:84,0,1,251069
BRDA:86,0,0,120646
BRDA:86,0,1,130423
BRDA:88,0,0,120646
BRDA:88,0,1,0
BRF:18
BFH:16
LF:55
LH:54
end_of_record
SF:/workspaces/pep10term/dependencies/pepcore/src/libisa/masm/ir/args.hpp
FN:15,_ZN4masm2ir12lir_argumentItED2Ev
FN:27,_ZN4masm2ir13char_argumentItED2Ev
FN:40,_ZN4masm2ir12dec_argumentItED2Ev
FN:54,_ZN4masm2ir21unsigned_dec_argumentItED2Ev
FN:67,_ZN4masm2ir12hex_argumentItED2Ev
FN:81,_ZN4masm2ir15string_argumentItED2Ev
FN:110,_ZN4masm2ir19symbol_ref_argumentItED2Ev
FN:96,_ZN4masm2ir14ascii_argumentItED2Ev
FNDA:19075,_ZN4masm2ir12lir_argumentItED2Ev
FNDA:723,_ZN4masm2ir13char_argumentItED2Ev
FNDA:5427,_ZN4masm2ir12dec_argumentItED2Ev
FNDA:1,_ZN4masm2ir21unsigned_dec_argumentItED2Ev
FNDA:1070,_ZN4masm2ir12hex_argumentItED2Ev
FNDA:34,_ZN4masm2ir15string_argumentItED2Ev
FNDA:11571,_ZN4masm2ir19symbol_ref_argumentItED2Ev
FNDA:244,_ZN4masm2ir14ascii_argumentItED2Ev
FNF:8
FNH:8
DA:15,19075
DA:27,723
DA:40,5427
DA:54,1
DA:67,1070
DA:81,34
DA:96,244
DA:110,11571
BRF:0
BFH:0
LF:8
LH:8
end_of_record
SF:/workspaces/pep10term/dependencies/pepcore/src/libisa/masm/ir/args.tpp
FN:16,_ZN4masm2ir13char_argumentItEC2ENSt7__cxx1112basic_stringIcSt11char_traitsIcESaIcEEE
FN:28,_ZNK4masm2ir13char_argumentItE5valueEv
FN:37,_ZNK4masm2ir13char_argumentItE6stringB5cxx11Ev
FN:43,_ZNK4masm2ir13char_argumentItE7fits_inEm
FN:52,_ZN4masm2ir12dec_argumentItEC2Et
FN:58,_ZNK4masm2ir12dec_argumentItE5valueEv
FN:64,_ZNK4masm2ir12dec_argumentItE6stringB5cxx11Ev
FN:71,_ZNK4masm2ir12dec_argumentItE7fits_inEm
FN:89,_ZN4masm2ir21unsigned_dec_argumentItEC2Et
FN:95,_ZNK4masm2ir21unsigned_dec_argumentItE5valueEv
FN:101,_ZNK4masm2ir21unsigned_dec_argumentItE6stringB5cxx11Ev
FN:108,_ZNK4masm2ir21unsigned_dec_argumentItE7fits_inEm
FN:119,_ZN4masm2ir12hex_argumentItEC2Et
FN:125,_ZNK4masm2ir12hex_argumentItE5valueEv
FN:131,_ZNK4masm2ir12hex_argumentItE6stringB5cxx11Ev
FN:137,_ZNK4masm2ir12hex_argumentItE7fits_inEm
FN:150,_ZN4masm2ir15string_argumentItEC2ENSt7__cxx1112basic_stringIcSt11char_traitsIcESaIcEEE
FN:163,_ZNK4masm2ir15string_argumentItE5valueEv
FN:172,_ZNK4masm2ir15string_argumentItE6stringB5cxx11Ev
FN:177,_ZNK4masm2ir15string_argumentItE7fits_inEm
FN:247,_ZN4masm2ir19symbol_ref_argumentItE12symbol_valueEv
FN:226,_ZN4masm2ir19symbol_ref_argumentItEC2ESt10shared_ptrIKN6symbol5entryItEEE
FN:232,_ZNK4masm2ir19symbol_ref_argumentItE5valueEv
FN:241,_ZNK4masm2ir19symbol_ref_argumentItE6stringB5cxx11Ev
FN:252,_ZNK4masm2ir19symbol_ref_argumentItE7fits_inEm
FN:187,_ZN4masm2ir14ascii_argumentItEC2ENSt7__cxx1112basic_stringIcSt11char_traitsIcESaIcEEEm
FN:197,_ZNK4masm2ir14ascii_argumentItE5valueEv
FN:203,_ZNK4masm2ir14ascii_argumentItE6stringB5cxx11Ev
FN:215,_ZNK4masm2ir14ascii_argumentItE7fits_inEm
FNDA:726,_ZN4masm2ir13char_argumentItEC2ENSt7__cxx1112basic_stringIcSt11char_traitsIcESaIcEEE
FNDA:741,_ZNK4masm2ir13char_argumentItE5valueEv
FNDA:9,_ZNK4masm2ir13char_argumentItE6stringB5cxx11Ev
FNDA:741,_ZNK4masm2ir13char_argumentItE7fits_inEm
FNDA:5429,_ZN4masm2ir12dec_argumentItEC2Et
FNDA:6495,_ZNK4masm2ir12dec_argumentItE5valueEv
FNDA:13,_ZNK4masm2ir12dec_argumentItE6stringB5cxx11Ev
FNDA:5424,_ZNK4masm2ir12dec_argumentItE7fits_inEm
FNDA:3,_ZN4masm2ir21unsigned_dec_argumentItEC2Et
FNDA:3,_ZNK4masm2ir21unsigned_dec_argumentItE5valueEv
FNDA:3,_ZNK4masm2ir21unsigned_dec_argumentItE6stringB5cxx11Ev
FNDA:9,_ZNK4masm2ir21unsigned_dec_argumentItE7fits_inEm
FNDA:1072,_ZN4masm2ir12hex_argumentItEC2Et
FNDA:1093,_ZNK4masm2ir12hex_argumentItE5valueEv
FNDA:5,_ZNK4masm2ir12hex_argumentItE6stringB5cxx11Ev
FNDA:1076,_ZNK4masm2ir12hex_argumentItE7fits_inEm
FNDA:36,_ZN4masm2ir15string_argumentItEC2ENSt7__cxx1112basic_stringIcSt11char_traitsIcESaIcEEE
FNDA:35,_ZNK4masm2ir15string_argumentItE5valueEv
FNDA:31,_ZNK4masm2ir15string_argumentItE6stringB5cxx11Ev
FNDA:96,_ZNK4masm2ir15string_argumentItE7fits_inEm
FNDA:11329,_ZN4masm2ir19symbol_ref_argumentItE12symbol_valueEv
FNDA:11571,_ZN4masm2ir19symbol_ref_argumentItEC2ESt10shared_ptrIKN6symbol5entryItEEE
FNDA:12164,_ZNK4masm2ir19symbol_ref_argumentItE5valueEv
FNDA:2,_ZNK4masm2ir19symbol_ref_argumentItE6stringB5cxx11Ev
FNDA:10898,_ZNK4masm2ir19symbol_ref_argumentItE7fits_inEm
FNDA:244,_ZN4masm2ir14ascii_argumentItEC2ENSt7__cxx1112basic_stringIcSt11char_traitsIcESaIcEEEm
FNDA:0,_ZNK4masm2ir14ascii_argumentItE5valueEv
FNDA:967,_ZNK4masm2ir14ascii_argumentItE6stringB5cxx11Ev
FNDA:3,_ZNK4masm2ir14ascii_argumentItE7fits_inEm
FNF:29
FNH:28
DA:16,726
DA:17,726
DA:18,726
DA:19,2
DA:20,2
DA:21,724
DA:22,0
DA:23,0
DA:24,726
DA:28,741
DA:30,741
DA:31,741
DA:32,741
DA:33,741
DA:37,9
DA:38,9
DA:39,9
DA:43,741
DA:44,741
DA:45,741
DA:52,5429
DA:54,5429
DA:58,6495
DA:59,6495
DA:60,6495
DA:64,13
DA:65,13
DA:66,13
DA:67,13
DA:71,5424
DA:72,5424
DA:73,13
DA:76,10
DA:77,10
DA:79,10
DA:81,7
DA:82,10
DA:89,3
DA:91,3
DA:95,3
DA:96,3
DA:97,3
DA:101,3
DA:102,3
DA:103,3
DA:104,3
DA:108,9
DA:109,9
DA:110,6
DA:111,3
DA:112,9
DA:119,1072
DA:121,1072
DA:125,1093
DA:126,1093
DA:127,1093
DA:131,5
DA:132,5
DA:133,5
DA:137,1076
DA:138,1076
DA:139,8
DA:140,5
DA:141,1076
DA:150,36
DA:152,36
DA:153,36
DA:154,1
DA:155,1
DA:156,35
DA:157,0
DA:158,0
DA:159,36
DA:163,35
DA:165,35
DA:166,35
DA:167,35
DA:168,35
DA:172,31
DA:173,31
DA:174,31
DA:177,96
DA:178,96
DA:179,96
DA:187,244
DA:189,244
DA:190,244
DA:191,0
DA:192,0
DA:193,244
DA:197,0
DA:198,0
DA:199,0
DA:203,967
DA:204,967
DA:205,967
DA:215,3
DA:216,3
DA:217,3
DA:218,3
DA:226,11571
DA:228,11571
DA:232,12164
DA:236,12164
DA:237,12164
DA:241,2
DA:242,2
DA:243,2
DA:247,11329
DA:248,11329
DA:249,11329
DA:252,10898
DA:253,10898
DA:254,10898
DA:255,10898
BRDA:18,0,0,2
BRDA:18,0,1,724
BRDA:21,0,0,0
BRDA:21,0,1,724
BRDA:72,0,0,5411
BRDA:72,0,1,13
BRDA:73,0,0,3
BRDA:73,0,1,10
BRDA:79,0,0,3
BRDA:79,0,1,7
BRDA:109,0,0,3
BRDA:109,0,1,6
BRDA:110,0,0,3
BRDA:110,0,1,3
BRDA:138,0,0,1068
BRDA:138,0,1,8
BRDA:139,0,0,3
BRDA:139,0,1,5
BRDA:153,0,0,1
BRDA:153,0,1,35
BRDA:156,0,0,0
BRDA:156,0,1,35
BRDA:190,0,0,0
BRDA:190,0,1,244
BRDA:216,0,0,0
BRDA:216,0,1,3
BRDA:253,0,0,0
BRDA:253,0,1,10898
BRF:28
BFH:23
LF:115
LH:106
end_of_record
SF:/workspaces/pep10term/dependencies/pepcore/src/libisa/masm/ir/base.hpp
FN:48,_ZN4masm2ir4swapERNS0_11linear_lineItEES3_
FN:39,_ZNK4masm2ir11linear_lineItE17object_code_bytesEv
FN:31,_ZNK4masm2ir11linear_lineItE12base_addressEv
FN:46,_ZNK4masm2ir11linear_lineItE16symbolic_operandEv
FN:30,_ZN4masm2ir11linear_lineItE23contains_memory_addressEv
FN:23,_ZNK4masm2ir11linear_lineItE17tracks_trace_tagsEv
FN:41,_ZNK4masm2ir11linear_lineItE7is_codeEv
FN:18,_ZN4masm2ir11linear_lineItED2Ev
FN:32,_ZN4masm2ir11linear_lineItE17set_begin_addressEt
FN:33,_ZN4masm2ir11linear_lineItE15set_end_addressEt
FNDA:0,_ZN4masm2ir4swapERNS0_11linear_lineItEES3_
FNDA:23878,_ZNK4masm2ir11linear_lineItE17object_code_bytesEv
FNDA:5483,_ZNK4masm2ir11linear_lineItE12base_addressEv
FNDA:10819,_ZNK4masm2ir11linear_lineItE16symbolic_operandEv
FNDA:11,_ZN4masm2ir11linear_lineItE23contains_memory_addressEv
FNDA:7,_ZNK4masm2ir11linear_lineItE17tracks_trace_tagsEv
FNDA:11,_ZNK4masm2ir11linear_lineItE7is_codeEv
FNDA:27215,_ZN4masm2ir11linear_lineItED2Ev
FNDA:1589,_ZN4masm2ir11linear_lineItE17set_begin_addressEt
FNDA:25480,_ZN4masm2ir11linear_lineItE15set_end_addressEt
FNF:10
FNH:9
DA:18,27215
DA:23,7
DA:30,11
DA:31,5483
DA:32,1589
DA:33,25480
DA:39,23878
DA:41,11
DA:46,10819
DA:48,0
DA:49,0
DA:50,0
DA:51,0
DA:52,0
DA:53,0
DA:54,0
DA:55,0
DA:56,0
DA:59,0
BRF:0
BFH:0
LF:19
LH:9
end_of_record
SF:/workspaces/pep10term/dependencies/pepcore/src/libisa/masm/ir/base.tpp
FN:6,_ZN4masm2ir11linear_lineItEC2Ev
FN:28,_ZNK4masm2ir11linear_lineItE21get_formatted_commentB5cxx11Ev
FN:12,_ZN4masm2ir11linear_lineItEC2ERKS2_
FNDA:27215,_ZN4masm2ir11linear_lineItEC2Ev
FNDA:18,_ZNK4masm2ir11linear_lineItE21get_formatted_commentB5cxx11Ev
FNDA:0,_ZN4masm2ir11linear_lineItEC2ERKS2_
FNF:3
FNH:2
DA:6,27215
DA:8,27215
DA:12,0
DA:13,0
DA:14,0
DA:15,0
DA:16,0
DA:17,0
DA:18,0
DA:19,0
DA:21,0
DA:28,18
DA:29,18
DA:30,18
DA:31,18
BRDA:29,0,0,0
BRDA:29,0,1,18
BRF:2
BFH:1
LF:15
LH:6
end_of_record
SF:/workspaces/pep10term/dependencies/pepcore/src/libisa/masm/ir/directives.hpp
FN:16,_ZN4masm2ir11dot_addressItEC2Ev
FN:17,_ZN4masm2ir11dot_addressItED2Ev
FN:52,_ZN4masm2ir9dot_alignItED2Ev
FN:85,_ZN4masm2ir9dot_asciiItED2Ev
FN:112,_ZN4masm2ir9dot_blockItED2Ev
FN:139,_ZN4masm2ir8dot_burnItEC2Ev
FN:140,_ZN4masm2ir8dot_burnItED2Ev
FN:165,_ZN4masm2ir8dot_byteItED2Ev
FN:193,_ZN4masm2ir7dot_endItEC2Ev
FN:194,_ZN4masm2ir7dot_endItED2Ev
FN:216,_ZN4masm2ir10dot_equateItEC2Ev
FN:217,_ZN4masm2ir10dot_equateItED2Ev
FN:244,_ZN4masm2ir8dot_wordItED2Ev
FNDA:1,_ZN4masm2ir11dot_addressItEC2Ev
FNDA:1,_ZN4masm2ir11dot_addressItED2Ev
FNDA:9,_ZN4masm2ir9dot_alignItED2Ev
FNDA:245,_ZN4masm2ir9dot_asciiItED2Ev
FNDA:425,_ZN4masm2ir9dot_blockItED2Ev
FNDA:61,_ZN4masm2ir8dot_burnItEC2Ev
FNDA:61,_ZN4masm2ir8dot_burnItED2Ev
FNDA:15,_ZN4masm2ir8dot_byteItED2Ev
FNDA:328,_ZN4masm2ir7dot_endItEC2Ev
FNDA:328,_ZN4masm2ir7dot_endItED2Ev
FNDA:1358,_ZN4masm2ir10dot_equateItEC2Ev
FNDA:1358,_ZN4masm2ir10dot_equateItED2Ev
FNDA:1035,_ZN4masm2ir8dot_wordItED2Ev
FNF:13
FNH:13
DA:16,1
DA:17,1
DA:52,9
DA:85,245
DA:112,425
DA:139,61
DA:140,61
DA:165,15
DA:193,328
DA:194,328
DA:216,1358
DA:217,1358
DA:244,1035
BRF:0
BFH:0
LF:13
LH:13
end_of_record
SF:/workspaces/pep10term/dependencies/pepcore/src/libisa/masm/ir/directives.tpp
FN:28,_ZNK4masm2ir11dot_addressItE5cloneEv
FN:13,_ZN4masm2ir11dot_addressItEC2ERKS2_
FN:74,_ZNK4masm2ir11dot_addressItE18append_object_codeERSt6vectorIhSaIhEE
FN:82,_ZNK4masm2ir11dot_addressItE16symbolic_operandEv
FN:50,_ZNK4masm2ir11dot_addressItE22generate_source_stringB5cxx11Ev
FN:34,_ZNK4masm2ir11dot_addressItE23generate_listing_stringB5cxx11Ev
FN:68,_ZNK4masm2ir11dot_addressItE17object_code_bytesEv
FN:92,_ZN4masm2ir9dot_alignItEC2Ev
FN:113,_ZNK4masm2ir9dot_alignItE5cloneEv
FN:98,_ZN4masm2ir9dot_alignItEC2ERKS2_
FN:179,_ZN4masm2ir9dot_alignItE15set_end_addressEt
FN:193,_ZNK4masm2ir9dot_alignItE18append_object_codeERSt6vectorIhSaIhEE
FN:201,_ZNK4masm2ir9dot_alignItE19num_bytes_generatedEv
FN:171,_ZN4masm2ir9dot_alignItE17set_begin_addressEt
FN:153,_ZNK4masm2ir9dot_alignItE22generate_source_stringB5cxx11Ev
FN:119,_ZNK4masm2ir9dot_alignItE23generate_listing_stringB5cxx11Ev
FN:187,_ZNK4masm2ir9dot_alignItE17object_code_bytesEv
FN:211,_ZN4masm2ir9dot_asciiItEC2Ev
FN:231,_ZNK4masm2ir9dot_asciiItE5cloneEv
FN:217,_ZN4masm2ir9dot_asciiItEC2ERKS2_
FN:297,_ZNK4masm2ir9dot_asciiItE18append_object_codeERSt6vectorIhSaIhEE
FN:272,_ZNK4masm2ir9dot_asciiItE22generate_source_stringB5cxx11Ev
FN:237,_ZNK4masm2ir9dot_asciiItE23generate_listing_stringB5cxx11Ev
FN:290,_ZNK4masm2ir9dot_asciiItE17object_code_bytesEv
FN:312,_ZN4masm2ir9dot_blockItEC2Ev
FN:333,_ZNK4masm2ir9dot_blockItE5cloneEv
FN:318,_ZN4masm2ir9dot_blockItEC2ERKS2_
FN:397,_ZNK4masm2ir9dot_blockItE18append_object_codeERSt6vectorIhSaIhEE
FN:373,_ZNK4masm2ir9dot_blockItE22generate_source_stringB5cxx11Ev
FN:339,_ZNK4masm2ir9dot_blockItE23generate_listing_stringB5cxx11Ev
FN:391,_ZNK4masm2ir9dot_blockItE17object_code_bytesEv
FN:404,_ZNK4masm2ir9dot_blockItE17tracks_trace_tagsEv
FN:428,_ZNK4masm2ir8dot_burnItE5cloneEv
FN:413,_ZN4masm2ir8dot_burnItEC2ERKS2_
FN:461,_ZNK4masm2ir8dot_burnItE18append_object_codeERSt6vectorIhSaIhEE
FN:446,_ZNK4masm2ir8dot_burnItE22generate_source_stringB5cxx11Ev
FN:434,_ZNK4masm2ir8dot_burnItE23generate_listing_stringB5cxx11Ev
FN:470,_ZN4masm2ir8dot_byteItEC2Ev
FN:491,_ZNK4masm2ir8dot_byteItE5cloneEv
FN:476,_ZN4masm2ir8dot_byteItEC2ERKS2_
FN:540,_ZNK4masm2ir8dot_byteItE18append_object_codeERSt6vectorIhSaIhEE
FN:516,_ZNK4masm2ir8dot_byteItE22generate_source_stringB5cxx11Ev
FN:497,_ZNK4masm2ir8dot_byteItE23generate_listing_stringB5cxx11Ev
FN:534,_ZNK4masm2ir8dot_byteItE17object_code_bytesEv
FN:547,_ZNK4masm2ir8dot_byteItE17tracks_trace_tagsEv
FN:571,_ZNK4masm2ir7dot_endItE5cloneEv
FN:556,_ZN4masm2ir7dot_endItEC2ERKS2_
FN:602,_ZNK4masm2ir7dot_endItE18append_object_codeERSt6vectorIhSaIhEE
FN:589,_ZNK4masm2ir7dot_endItE22generate_source_stringB5cxx11Ev
FN:577,_ZNK4masm2ir7dot_endItE23generate_listing_stringB5cxx11Ev
FN:626,_ZNK4masm2ir10dot_equateItE5cloneEv
FN:611,_ZN4masm2ir10dot_equateItEC2ERKS2_
FN:662,_ZNK4masm2ir10dot_equateItE18append_object_codeERSt6vectorIhSaIhEE
FN:644,_ZNK4masm2ir10dot_equateItE22generate_source_stringB5cxx11Ev
FN:632,_ZNK4masm2ir10dot_equateItE23generate_listing_stringB5cxx11Ev
FN:668,_ZNK4masm2ir10dot_equateItE17tracks_trace_tagsEv
FN:677,_ZN4masm2ir8dot_wordItEC2Ev
FN:698,_ZNK4masm2ir8dot_wordItE5cloneEv
FN:683,_ZN4masm2ir8dot_wordItEC2ERKS2_
FN:747,_ZNK4masm2ir8dot_wordItE18append_object_codeERSt6vectorIhSaIhEE
FN:755,_ZNK4masm2ir8dot_wordItE16symbolic_operandEv
FN:723,_ZNK4masm2ir8dot_wordItE22generate_source_stringB5cxx11Ev
FN:704,_ZNK4masm2ir8dot_wordItE23generate_listing_stringB5cxx11Ev
FN:741,_ZNK4masm2ir8dot_wordItE17object_code_bytesEv
FN:764,_ZNK4masm2ir8dot_wordItE17tracks_trace_tagsEv
FNDA:0,_ZNK4masm2ir11dot_addressItE5cloneEv
FNDA:0,_ZN4masm2ir11dot_addressItEC2ERKS2_
FNDA:0,_ZNK4masm2ir11dot_addressItE18append_object_codeERSt6vectorIhSaIhEE
FNDA:0,_ZNK4masm2ir11dot_addressItE16symbolic_operandEv
FNDA:2,_ZNK4masm2ir11dot_addressItE22generate_source_stringB5cxx11Ev
FNDA:1,_ZNK4masm2ir11dot_addressItE23generate_listing_stringB5cxx11Ev
FNDA:3,_ZNK4masm2ir11dot_addressItE17object_code_bytesEv
FNDA:9,_ZN4masm2ir9dot_alignItEC2Ev
FNDA:0,_ZNK4masm2ir9dot_alignItE5cloneEv
FNDA:0,_ZN4masm2ir9dot_alignItEC2ERKS2_
FNDA:0,_ZN4masm2ir9dot_alignItE15set_end_addressEt
FNDA:0,_ZNK4masm2ir9dot_alignItE18append_object_codeERSt6vectorIhSaIhEE
FNDA:3,_ZNK4masm2ir9dot_alignItE19num_bytes_generatedEv
FNDA:1,_ZN4masm2ir9dot_alignItE17set_begin_addressEt
FNDA:2,_ZNK4masm2ir9dot_alignItE22generate_source_stringB5cxx11Ev
FNDA:1,_ZNK4masm2ir9dot_alignItE23generate_listing_stringB5cxx11Ev
FNDA:2,_ZNK4masm2ir9dot_alignItE17object_code_bytesEv
FNDA:245,_ZN4masm2ir9dot_asciiItEC2Ev
FNDA:0,_ZNK4masm2ir9dot_asciiItE5cloneEv
FNDA:0,_ZN4masm2ir9dot_asciiItEC2ERKS2_
FNDA:240,_ZNK4masm2ir9dot_asciiItE18append_object_codeERSt6vectorIhSaIhEE
FNDA:2,_ZNK4masm2ir9dot_asciiItE22generate_source_stringB5cxx11Ev
FNDA:1,_ZNK4masm2ir9dot_asciiItE23generate_listing_stringB5cxx11Ev
FNDA:724,_ZNK4masm2ir9dot_asciiItE17object_code_bytesEv
FNDA:425,_ZN4masm2ir9dot_blockItEC2Ev
FNDA:0,_ZNK4masm2ir9dot_blockItE5cloneEv
FNDA:0,_ZN4masm2ir9dot_blockItEC2ERKS2_
FNDA:429,_ZNK4masm2ir9dot_blockItE18append_object_codeERSt6vectorIhSaIhEE
FNDA:2,_ZNK4masm2ir9dot_blockItE22generate_source_stringB5cxx11Ev
FNDA:1,_ZNK4masm2ir9dot_blockItE23generate_listing_stringB5cxx11Ev
FNDA:1266,_ZNK4masm2ir9dot_blockItE17object_code_bytesEv
FNDA:1,_ZNK4masm2ir9dot_blockItE17tracks_trace_tagsEv
FNDA:0,_ZNK4masm2ir8dot_burnItE5cloneEv
FNDA:0,_ZN4masm2ir8dot_burnItEC2ERKS2_
FNDA:46,_ZNK4masm2ir8dot_burnItE18append_object_codeERSt6vectorIhSaIhEE
FNDA:2,_ZNK4masm2ir8dot_burnItE22generate_source_stringB5cxx11Ev
FNDA:1,_ZNK4masm2ir8dot_burnItE23generate_listing_stringB5cxx11Ev
FNDA:15,_ZN4masm2ir8dot_byteItEC2Ev
FNDA:0,_ZNK4masm2ir8dot_byteItE5cloneEv
FNDA:0,_ZN4masm2ir8dot_byteItEC2ERKS2_
FNDA:6,_ZNK4masm2ir8dot_byteItE18append_object_codeERSt6vectorIhSaIhEE
FNDA:2,_ZNK4masm2ir8dot_byteItE22generate_source_stringB5cxx11Ev
FNDA:1,_ZNK4masm2ir8dot_byteItE23generate_listing_stringB5cxx11Ev
FNDA:24,_ZNK4masm2ir8dot_byteItE17object_code_bytesEv
FNDA:1,_ZNK4masm2ir8dot_byteItE17tracks_trace_tagsEv
FNDA:0,_ZNK4masm2ir7dot_endItE5cloneEv
FNDA:0,_ZN4masm2ir7dot_endItEC2ERKS2_
FNDA:306,_ZNK4masm2ir7dot_endItE18append_object_codeERSt6vectorIhSaIhEE
FNDA:2,_ZNK4masm2ir7dot_endItE22generate_source_stringB5cxx11Ev
FNDA:1,_ZNK4masm2ir7dot_endItE23generate_listing_stringB5cxx11Ev
FNDA:0,_ZNK4masm2ir10dot_equateItE5cloneEv
FNDA:0,_ZN4masm2ir10dot_equateItEC2ERKS2_
FNDA:1380,_ZNK4masm2ir10dot_equateItE18append_object_codeERSt6vectorIhSaIhEE
FNDA:2,_ZNK4masm2ir10dot_equateItE22generate_source_stringB5cxx11Ev
FNDA:1,_ZNK4masm2ir10dot_equateItE23generate_listing_stringB5cxx11Ev
FNDA:1,_ZNK4masm2ir10dot_equateItE17tracks_trace_tagsEv
FNDA:1035,_ZN4masm2ir8dot_wordItEC2Ev
FNDA:0,_ZNK4masm2ir8dot_wordItE5cloneEv
FNDA:0,_ZN4masm2ir8dot_wordItEC2ERKS2_
FNDA:1052,_ZNK4masm2ir8dot_wordItE18append_object_codeERSt6vectorIhSaIhEE
FNDA:1027,_ZNK4masm2ir8dot_wordItE16symbolic_operandEv
FNDA:2,_ZNK4masm2ir8dot_wordItE22generate_source_stringB5cxx11Ev
FNDA:1,_ZNK4masm2ir8dot_wordItE23generate_listing_stringB5cxx11Ev
FNDA:3139,_ZNK4masm2ir8dot_wordItE17object_code_bytesEv
FNDA:1,_ZNK4masm2ir8dot_wordItE17tracks_trace_tagsEv
FNF:65
FNH:43
DA:13,0
DA:15,0
DA:28,0
DA:29,0
DA:30,0
DA:34,1
DA:36,1
DA:37,1
DA:38,0
DA:39,0
DA:41,1
DA:42,1
DA:43,1
DA:44,1
DA:45,1
DA:46,1
DA:50,2
DA:51,2
DA:52,2
DA:53,2
DA:54,2
DA:55,2
DA:56,2
DA:57,2
DA:58,2
DA:59,2
DA:60,2
DA:61,2
DA:62,2
DA:64,2
DA:68,3
DA:69,3
DA:70,3
DA:74,0
DA:75,0
DA:76,0
DA:77,0
DA:78,0
DA:82,0
DA:84,0
DA:85,0
DA:92,9
DA:93,9
DA:94,9
DA:98,0
DA:100,0
DA:113,0
DA:114,0
DA:115,0
DA:119,1
DA:121,1
DA:122,1
DA:123,1
DA:125,4
DA:126,3
DA:127,3
DA:128,3
DA:129,3
DA:131,1
DA:132,1
DA:133,1
DA:134,1
DA:135,1
DA:137,1
DA:138,0
DA:139,0
DA:140,0
DA:141,0
DA:142,0
DA:143,0
DA:144,0
DA:146,0
DA:147,0
DA:148,1
DA:149,1
DA:153,2
DA:154,2
DA:155,2
DA:156,0
DA:157,0
DA:158,2
DA:159,2
DA:160,2
DA:161,2
DA:162,2
DA:163,2
DA:164,2
DA:165,2
DA:167,2
DA:171,1
DA:172,1
DA:173,1
DA:174,1
DA:175,1
DA:179,0
DA:180,0
DA:181,0
DA:182,0
DA:183,0
DA:187,2
DA:188,2
DA:189,2
DA:193,0
DA:194,0
DA:196,0
DA:197,0
DA:201,3
DA:203,3
DA:204,3
DA:211,245
DA:212,245
DA:213,245
DA:217,0
DA:219,0
DA:231,0
DA:232,0
DA:233,0
DA:237,1
DA:239,1
DA:241,1
DA:243,1
DA:244,1
DA:245,1
DA:246,4
DA:247,3
DA:248,3
DA:249,3
DA:251,1
DA:252,1
DA:253,1
DA:254,1
DA:255,1
DA:257,1
DA:258,0
DA:259,0
DA:260,0
DA:261,0
DA:262,0
DA:263,0
DA:265,0
DA:266,0
DA:267,1
DA:268,1
DA:272,2
DA:273,2
DA:274,2
DA:275,0
DA:276,0
DA:277,2
DA:278,2
DA:279,2
DA:280,2
DA:281,2
DA:282,2
DA:283,2
DA:284,2
DA:286,2
DA:290,724
DA:291,724
DA:292,724
DA:293,724
DA:297,240
DA:298,240
DA:300,240
DA:302,240
DA:303,240
DA:305,240
DA:312,425
DA:313,425
DA:314,425
DA:318,0
DA:320,0
DA:333,0
DA:334,0
DA:335,0
DA:339,1
DA:341,1
DA:343,1
DA:345,1
DA:346,1
DA:347,4
DA:348,3
DA:349,3
DA:350,3
DA:352,1
DA:353,1
DA:354,1
DA:355,1
DA:356,1
DA:358,1
DA:359,0
DA:360,0
DA:361,0
DA:362,0
DA:363,0
DA:364,0
DA:366,0
DA:367,0
DA:368,1
DA:369,1
DA:373,2
DA:374,2
DA:375,2
DA:376,0
DA:377,0
DA:378,2
DA:379,2
DA:380,2
DA:381,2
DA:382,2
DA:383,2
DA:384,2
DA:385,2
DA:387,2
DA:391,1266
DA:392,1266
DA:393,1266
DA:397,429
DA:398,429
DA:399,90
DA:400,29
DA:404,1
DA:405,1
DA:406,1
DA:413,0
DA:415,0
DA:428,0
DA:429,0
DA:430,0
DA:434,1
DA:435,1
DA:436,1
DA:437,1
DA:438,1
DA:439,1
DA:441,1
DA:442,1
DA:446,2
DA:448,2
DA:449,2
DA:450,2
DA:451,2
DA:452,2
DA:453,2
DA:454,2
DA:455,2
DA:457,2
DA:461,46
DA:462,46
DA:463,46
DA:470,15
DA:471,15
DA:472,15
DA:476,0
DA:478,0
DA:491,0
DA:492,0
DA:493,0
DA:497,1
DA:499,1
DA:500,1
DA:501,1
DA:502,1
DA:505,1
DA:506,1
DA:507,1
DA:508,1
DA:509,1
DA:511,1
DA:512,1
DA:516,2
DA:517,2
DA:518,2
DA:519,0
DA:520,0
DA:521,2
DA:522,2
DA:523,2
DA:524,2
DA:525,2
DA:526,2
DA:527,2
DA:528,2
DA:530,2
DA:534,24
DA:535,24
DA:536,24
DA:540,6
DA:541,6
DA:542,6
DA:543,6
DA:547,1
DA:548,1
DA:549,1
DA:556,0
DA:558,0
DA:571,0
DA:572,0
DA:573,0
DA:577,1
DA:578,1
DA:579,1
DA:580,1
DA:581,1
DA:582,1
DA:584,1
DA:585,1
DA:589,2
DA:590,2
DA:591,2
DA:592,2
DA:593,2
DA:594,2
DA:595,2
DA:596,2
DA:598,2
DA:602,306
DA:603,306
DA:604,306
DA:611,0
DA:613,0
DA:626,0
DA:627,0
DA:628,0
DA:632,1
DA:633,1
DA:634,1
DA:635,1
DA:636,1
DA:637,1
DA:639,1
DA:640,1
DA:644,2
DA:645,2
DA:646,2
DA:647,0
DA:648,0
DA:649,2
DA:650,2
DA:651,2
DA:652,2
DA:653,2
DA:654,2
DA:655,2
DA:656,2
DA:658,2
DA:662,1380
DA:663,1380
DA:664,1380
DA:668,1
DA:669,1
DA:670,1
DA:677,1035
DA:678,1035
DA:679,1035
DA:683,0
DA:685,0
DA:698,0
DA:699,0
DA:700,0
DA:704,1
DA:706,1
DA:707,1
DA:708,1
DA:709,1
DA:712,1
DA:713,1
DA:714,1
DA:715,1
DA:716,1
DA:718,1
DA:719,1
DA:723,2
DA:724,2
DA:725,2
DA:726,0
DA:727,0
DA:728,2
DA:729,2
DA:730,2
DA:731,2
DA:732,2
DA:733,2
DA:734,2
DA:735,2
DA:737,2
DA:741,3139
DA:742,3139
DA:743,3139
DA:747,1052
DA:748,1052
DA:749,1052
DA:750,1052
DA:751,1052
DA:755,1027
DA:756,1027
DA:757,978
DA:758,978
DA:759,49
DA:760,1027
DA:764,1
DA:765,1
DA:766,1
BRDA:37,0,0,0
BRDA:37,0,1,1
BRDA:52,0,0,2
BRDA:52,0,1,0
BRDA:75,0,0,-
BRDA:75,0,1,-
BRDA:125,0,0,4
BRDA:125,0,1,0
BRDA:125,1,2,3
BRDA:125,1,3,1
BRDA:125,2,4,3
BRDA:125,2,5,0
BRDA:137,0,0,0
BRDA:137,0,1,1
BRDA:140,0,0,-
BRDA:140,0,1,-
BRDA:140,1,2,-
BRDA:140,1,3,-
BRDA:140,2,4,-
BRDA:140,2,5,-
BRDA:155,0,0,0
BRDA:155,0,1,2
BRDA:194,0,0,-
BRDA:194,0,1,-
BRDA:196,0,0,-
BRDA:196,0,1,-
BRDA:246,0,0,4
BRDA:246,0,1,0
BRDA:246,1,2,3
BRDA:246,1,3,1
BRDA:246,2,4,3
BRDA:246,2,5,1
BRDA:246,3,6,3
BRDA:246,3,7,0
BRDA:257,0,0,0
BRDA:257,0,1,1
BRDA:260,0,0,-
BRDA:260,0,1,-
BRDA:260,1,2,-
BRDA:260,1,3,-
BRDA:260,2,4,-
BRDA:260,2,5,-
BRDA:260,3,6,-
BRDA:260,3,7,-
BRDA:274,0,0,0
BRDA:274,0,1,2
BRDA:298,0,0,0
BRDA:298,0,1,240
BRDA:347,0,0,4
BRDA:347,0,1,0
BRDA:347,1,2,3
BRDA:347,1,3,1
BRDA:347,2,4,3
BRDA:347,2,5,1
BRDA:347,3,6,3
BRDA:347,3,7,0
BRDA:358,0,0,0
BRDA:358,0,1,1
BRDA:361,0,0,-
BRDA:361,0,1,-
BRDA:361,1,2,-
BRDA:361,1,3,-
BRDA:361,2,4,-
BRDA:361,2,5,-
BRDA:361,3,6,-
BRDA:361,3,7,-
BRDA:375,0,0,0
BRDA:375,0,1,2
BRDA:398,0,0,400
BRDA:398,0,1,29
BRDA:399,0,0,61
BRDA:399,0,1,29
BRDA:500,0,0,1
BRDA:500,0,1,0
BRDA:518,0,0,0
BRDA:518,0,1,2
BRDA:541,0,0,0
BRDA:541,0,1,6
BRDA:646,0,0,0
BRDA:646,0,1,2
BRDA:707,0,0,1
BRDA:707,0,1,0
BRDA:725,0,0,0
BRDA:725,0,1,2
BRDA:748,0,0,0
BRDA:748,0,1,1052
BRDA:756,0,0,978
BRDA:756,0,1,49
BRF:88
BFH:38
LF:403
LH:302
end_of_record
SF:/workspaces/pep10term/dependencies/pepcore/src/libisa/masm/ir/empty.hpp
FN:34,_ZN4masm2ir10blank_lineItEC2Ev
FN:35,_ZN4masm2ir10blank_lineItED2Ev
FN:12,_ZN4masm2ir12comment_lineItEC2Ev
FN:13,_ZN4masm2ir12comment_lineItED2Ev
FNDA:198,_ZN4masm2ir10blank_lineItEC2Ev
FNDA:198,_ZN4masm2ir10blank_lineItED2Ev
FNDA:5309,_ZN4masm2ir12comment_lineItEC2Ev
FNDA:5309,_ZN4masm2ir12comment_lineItED2Ev
FNF:4
FNH:4
DA:12,5309
DA:13,5309
DA:34,198
DA:35,198
BRF:0
BFH:0
LF:4
LH:4
end_of_record
SF:/workspaces/pep10term/dependencies/pepcore/src/libisa/masm/ir/empty.tpp
FN:62,_ZNK4masm2ir10blank_lineItE5cloneEv
FN:47,_ZN4masm2ir10blank_lineItEC2ERKS2_
FN:80,_ZNK4masm2ir10blank_lineItE18append_object_codeERSt6vectorIhSaIhEE
FN:74,_ZNK4masm2ir10blank_lineItE22generate_source_stringB5cxx11Ev
FN:68,_ZNK4masm2ir10blank_lineItE23generate_listing_stringB5cxx11Ev
FN:22,_ZNK4masm2ir12comment_lineItE5cloneEv
FN:7,_ZN4masm2ir12comment_lineItEC2ERKS2_
FN:40,_ZNK4masm2ir12comment_lineItE18append_object_codeERSt6vectorIhSaIhEE
FN:34,_ZNK4masm2ir12comment_lineItE22generate_source_stringB5cxx11Ev
FN:28,_ZNK4masm2ir12comment_lineItE23generate_listing_stringB5cxx11Ev
FNDA:0,_ZNK4masm2ir10blank_lineItE5cloneEv
FNDA:0,_ZN4masm2ir10blank_lineItEC2ERKS2_
FNDA:200,_ZNK4masm2ir10blank_lineItE18append_object_codeERSt6vectorIhSaIhEE
FNDA:1,_ZNK4masm2ir10blank_lineItE22generate_source_stringB5cxx11Ev
FNDA:1,_ZNK4masm2ir10blank_lineItE23generate_listing_stringB5cxx11Ev
FNDA:0,_ZNK4masm2ir12comment_lineItE5cloneEv
FNDA:0,_ZN4masm2ir12comment_lineItEC2ERKS2_
FNDA:5437,_ZNK4masm2ir12comment_lineItE18append_object_codeERSt6vectorIhSaIhEE
FNDA:2,_ZNK4masm2ir12comment_lineItE22generate_source_stringB5cxx11Ev
FNDA:1,_ZNK4masm2ir12comment_lineItE23generate_listing_stringB5cxx11Ev
FNF:10
FNH:6
DA:7,0
DA:9,0
DA:22,0
DA:23,0
DA:24,0
DA:28,1
DA:29,1
DA:30,1
DA:34,2
DA:35,2
DA:36,2
DA:40,5437
DA:41,5437
DA:42,5437
DA:47,0
DA:49,0
DA:62,0
DA:63,0
DA:64,0
DA:68,1
DA:69,1
DA:70,1
DA:74,1
DA:75,1
DA:76,1
DA:80,200
DA:82,200
BRF:0
BFH:0
LF:27
LH:17
end_of_record
SF:/workspaces/pep10term/dependencies/pepcore/src/libisa/masm/ir/macro.hpp
FN:10,_ZN4masm2ir16macro_invocationItED2Ev
FNDA:232,_ZN4masm2ir16macro_invocationItED2Ev
FNF:1
FNH:1
DA:10,232
BRF:0
BFH:0
LF:1
LH:1
end_of_record
SF:/workspaces/pep10term/dependencies/pepcore/src/libisa/masm/ir/macro.tpp
FN:6,_ZN4masm2ir16macro_invocationItEC2Ev
FN:27,_ZNK4masm2ir16macro_invocationItE5cloneEv
FN:12,_ZN4masm2ir16macro_invocationItEC2ERKS2_
FN:33,_ZNK4masm2ir16macro_invocationItE23generate_listing_stringB5cxx11Ev
FN:56,_ZNK4masm2ir16macro_invocationItE22generate_source_stringB5cxx11Ev
FN:74,_ZNK4masm2ir16macro_invocationItE17object_code_bytesEv
FN:85,_ZNK4masm2ir16macro_invocationItE18append_object_codeERSt6vectorIhSaIhEE
FNDA:232,_ZN4masm2ir16macro_invocationItEC2Ev
FNDA:0,_ZNK4masm2ir16macro_invocationItE5cloneEv
FNDA:0,_ZN4masm2ir16macro_invocationItEC2ERKS2_
FNDA:0,_ZNK4masm2ir16macro_invocationItE23generate_listing_stringB5cxx11Ev
FNDA:0,_ZNK4masm2ir16macro_invocationItE22generate_source_stringB5cxx11Ev
FNDA:225,_ZNK4masm2ir16macro_invocationItE17object_code_bytesEv
FNDA:223,_ZNK4masm2ir16macro_invocationItE18append_object_codeERSt6vectorIhSaIhEE
FNF:7
FNH:3
DA:6,232
DA:7,232
DA:8,232
DA:12,0
DA:14,0
DA:27,0
DA:28,0
DA:29,0
DA:33,0
DA:34,0
DA:35,0
DA:36,0
DA:37,0
DA:38,0
DA:39,0
DA:41,0
DA:42,0
DA:44,0
DA:45,0
DA:46,0
DA:47,0
DA:48,0
DA:50,0
DA:51,0
DA:52,0
DA:56,0
DA:57,0
DA:58,0
DA:59,0
DA:60,0
DA:61,0
DA:62,0
DA:63,0
DA:64,0
DA:65,0
DA:66,0
DA:67,0
DA:68,0
DA:70,0
DA:74,225
DA:75,225
DA:76,225
DA:77,875
DA:78,875
DA:79,875
DA:80,225
DA:81,225
DA:85,223
DA:86,223
DA:87,865
DA:88,865
DA:89,865
DA:90,223
BRDA:41,0,0,-
BRDA:41,0,1,-
BRDA:44,0,0,-
BRDA:44,0,1,-
BRDA:48,0,0,-
BRDA:48,0,1,-
BRDA:58,0,0,-
BRDA:58,0,1,-
BRDA:76,0,0,875
BRDA:76,0,1,225
BRDA:86,0,0,0
BRDA:86,0,1,223
BRDA:87,0,0,865
BRDA:87,0,1,223
BRF:14
BFH:5
LF:53
LH:17
end_of_record
SF:/workspaces/pep10term/dependencies/pepcore/src/libisa/masm/macroparser.cpp
FN:58,_ZN4masm24analyze_macro_definitionENSt7__cxx1112basic_stringIcSt11char_traitsIcESaIcEEE
FN:31,_ZN6detail12macro_parserIN9__gnu_cxx17__normal_iteratorIPKcNSt7__cxx1112basic_stringIcSt11char_traitsIcESaIcEEEEEEC2Ev
FNDA:1910,_ZN4masm24analyze_macro_definitionENSt7__cxx1112basic_stringIcSt11char_traitsIcESaIcEEE
FNDA:1910,_ZN6detail12macro_parserIN9__gnu_cxx17__normal_iteratorIPKcNSt7__cxx1112basic_stringIcSt11char_traitsIcESaIcEEEEEEC2Ev
FNF:2
FNH:2
DA:31,1910
DA:32,1910
DA:33,1910
DA:34,1910
DA:35,1910
DA:36,1910
DA:37,1910
DA:39,1910
DA:40,1910
DA:41,1910
DA:42,1910
DA:43,1910
DA:44,1910
DA:58,1910
DA:80,1910
DA:81,1910
DA:82,1910
DA:83,1910
DA:84,1910
DA:85,1910
DA:86,1910
DA:87,1910
DA:88,1910
DA:90,1910
DA:91,4
DA:92,4
DA:93,1906
DA:94,1910
BRDA:90,0,0,3
BRDA:90,0,1,1907
BRDA:90,1,2,4
BRDA:90,1,3,1906
BRDA:90,2,4,1
BRDA:90,2,5,1906
BRF:6
BFH:6
LF:28
LH:28
end_of_record
SF:/workspaces/pep10term/dependencies/pepcore/src/libisa/masm/project/init_project.hpp
FN:12,_ZN4masm7project12init_projectItEESt10shared_ptrINS0_7projectIT_EEEv
FNDA:154,_ZN4masm7project12init_projectItEESt10shared_ptrINS0_7projectIT_EEEv
FNF:1
FNH:1
DA:12,154
DA:13,154
DA:14,154
DA:15,154
DA:16,154
DA:17,154
BRF:0
BFH:0
LF:6
LH:6
end_of_record
SF:/workspaces/pep10term/dependencies/pepcore/src/libisa/masm/project/message_handler.tpp
FN:7,_ZN4masm15message_handlerItE11log_messageESt10shared_ptrINS_3elf12code_sectionItEEEjNS_7messageE
FN:14,_ZN4masm15message_handlerItE18errors_for_sectionB5cxx11ERSt10shared_ptrINS_3elf12code_sectionItEEEb
FN:29,_ZZN4masm15message_handlerItE18errors_for_sectionB5cxx11ERSt10shared_ptrINS_3elf12code_sectionItEEEbENKUlT_E_clISt5tupleIJS6_jNS_7messageEEEEEDaS8_
FN:30,_ZZN4masm15message_handlerItE18errors_for_sectionB5cxx11ERSt10shared_ptrINS_3elf12code_sectionItEEEbENKUlRT_E_clISt5tupleIJS6_jNS_7messageEEEEEDaS9_
FNDA:58,_ZN4masm15message_handlerItE11log_messageESt10shared_ptrINS_3elf12code_sectionItEEEjNS_7messageE
FNDA:26,_ZN4masm15message_handlerItE18errors_for_sectionB5cxx11ERSt10shared_ptrINS_3elf12code_sectionItEEEb
FNDA:16,_ZZN4masm15message_handlerItE18errors_for_sectionB5cxx11ERSt10shared_ptrINS_3elf12code_sectionItEEEbENKUlT_E_clISt5tupleIJS6_jNS_7messageEEEEEDaS8_
FNDA:6,_ZZN4masm15message_handlerItE18errors_for_sectionB5cxx11ERSt10shared_ptrINS_3elf12code_sectionItEEEbENKUlRT_E_clISt5tupleIJS6_jNS_7messageEEEEEDaS9_
FNF:4
FNH:4
DA:7,58
DA:8,58
DA:9,58
DA:14,26
DA:15,26
DA:17,26
DA:18,10
DA:19,10
DA:20,10
DA:21,10
DA:22,10
DA:23,10
DA:24,10
DA:25,10
DA:26,10
DA:27,16
DA:28,16
DA:29,16
DA:30,16
DA:31,16
DA:32,16
DA:33,26
BRDA:17,0,0,13
BRDA:17,0,1,13
BRDA:17,1,2,10
BRDA:17,1,3,3
BRDA:19,0,0,10
BRDA:19,0,1,10
BRDA:22,0,0,7
BRDA:22,0,1,10
BRF:8
BFH:8
LF:24
LH:24
end_of_record
SF:/workspaces/pep10term/dependencies/pepcore/src/libisa/masm/project/section.hpp
FN:73,_ZN4masm3elf12code_sectionItED2Ev
FN:89,_ZN4masm3elf17top_level_sectionItED2Ev
FN:107,_ZN4masm3elf16macro_subsectionItED2Ev
FNDA:440,_ZN4masm3elf12code_sectionItED2Ev
FNDA:192,_ZN4masm3elf17top_level_sectionItED2Ev
FNDA:248,_ZN4masm3elf16macro_subsectionItED2Ev
FNF:3
FNH:3
DA:73,440
DA:89,192
DA:107,248
BRF:0
BFH:0
LF:3
LH:3
end_of_record
SF:/workspaces/pep10term/dependencies/pepcore/src/libisa/masm/project/section.tpp
FN:35,_ZN4masm3elf17top_level_sectionItE12insert_macroESt10shared_ptrINS0_12code_sectionItEEEjNSt7__cxx1112basic_stringIcSt11char_traitsIcESaIcEEESt6vectorISC_SaISC_EESC_
FN:7,_ZN4masm3elf17top_level_sectionItE23add_or_get_invoke_classERKSt10shared_ptrINS0_12code_sectionItEEE
FN:89,_ZN4masm3elf8to_bytesItEESt6vectorIhSaIhEESt10shared_ptrIKNS0_12code_sectionIT_EEE
FNDA:248,_ZN4masm3elf17top_level_sectionItE12insert_macroESt10shared_ptrINS0_12code_sectionItEEEjNSt7__cxx1112basic_stringIcSt11char_traitsIcESaIcEEESt6vectorISC_SaISC_EESC_
FNDA:496,_ZN4masm3elf17top_level_sectionItE23add_or_get_invoke_classERKSt10shared_ptrINS0_12code_sectionItEEE
FNDA:81,_ZN4masm3elf8to_bytesItEESt6vectorIhSaIhEESt10shared_ptrIKNS0_12code_sectionIT_EEE
FNF:3
FNH:3
DA:7,496
DA:8,496
DA:10,431
DA:11,431
DA:12,431
DA:13,165
DA:14,83
DA:15,431
DA:16,178
DA:17,178
DA:18,178
DA:19,178
DA:20,261
DA:22,235
DA:23,235
DA:24,235
DA:25,235
DA:26,0
DA:28,496
DA:35,248
DA:38,248
DA:40,248
DA:41,248
DA:42,248
DA:44,248
DA:45,13
DA:46,13
DA:48,235
DA:49,235
DA:50,235
DA:51,248
DA:52,248
DA:53,248
DA:55,248
DA:56,248
DA:57,248
DA:58,248
DA:62,248
DA:65,248
DA:66,161
DA:67,161
DA:69,903
DA:71,248
DA:74,248
DA:77,248
DA:79,248
DA:82,248
DA:83,248
DA:85,248
DA:86,248
DA:89,81
DA:90,81
DA:91,26177
DA:92,26177
DA:93,26177
DA:94,81
DA:95,81
BRDA:8,0,0,261
BRDA:8,0,1,235
BRDA:10,0,0,431
BRDA:10,0,1,178
BRDA:12,0,0,266
BRDA:12,0,1,165
BRDA:13,0,0,82
BRDA:13,0,1,83
BRDA:22,0,0,235
BRDA:22,0,1,0
BRDA:23,0,0,78
BRDA:23,0,1,157
BRDA:44,0,0,13
BRDA:44,0,1,235
BRDA:48,0,0,235
BRDA:48,0,1,0
BRDA:65,0,0,161
BRDA:65,0,1,87
BRDA:69,0,0,903
BRDA:69,0,1,248
BRDA:82,0,0,88
BRDA:82,0,1,160
BRDA:91,0,0,26177
BRDA:91,0,1,81
BRF:24
BFH:22
LF:57
LH:56
end_of_record
SF:/workspaces/pep10term/dependencies/pepcore/src/libisa/masm/registry.cpp
FN:11,_ZNK4masm14macro_registry13filter_macrosENS_9MacroTypeE
FN:22,_ZN4masm14macro_registryC2Ev
FN:27,_ZNK4masm14macro_registry8containsERKNSt7__cxx1112basic_stringIcSt11char_traitsIcESaIcEEE
FN:33,_ZNK4masm14macro_registry5macroERKNSt7__cxx1112basic_stringIcSt11char_traitsIcESaIcEEE
FN:39,_ZNK4masm14macro_registry11core_macrosEv
FN:44,_ZNK4masm14macro_registry13system_macrosEv
FN:49,_ZNK4masm14macro_registry13custom_macrosEv
FN:54,_ZN4masm14macro_registry26register_unary_system_callERKNSt7__cxx1112basic_stringIcSt11char_traitsIcESaIcEEES8_
FN:59,_ZN4masm14macro_registry29register_nonunary_system_callERKNSt7__cxx1112basic_stringIcSt11char_traitsIcESaIcEEES8_
FN:65,_ZN4masm14macro_registry14register_macroERKNSt7__cxx1112basic_stringIcSt11char_traitsIcESaIcEEES8_NS_9MacroTypeE
FN:92,_ZN4masm14macro_registry12clear_macrosENS_9MacroTypeE
FN:94,registry.cpp:_ZZN4masm14macro_registry12clear_macrosENS_9MacroTypeEENK3$_0clISt4pairIKNSt7__cxx1112basic_stringIcSt11char_traitsIcESaIcEEESt10shared_ptrINS_5MacroEEEEEDaRKT_
FNDA:0,_ZNK4masm14macro_registry13filter_macrosENS_9MacroTypeE
FNDA:161,_ZN4masm14macro_registryC2Ev
FNDA:268,_ZNK4masm14macro_registry8containsERKNSt7__cxx1112basic_stringIcSt11char_traitsIcESaIcEEE
FNDA:483,_ZNK4masm14macro_registry5macroERKNSt7__cxx1112basic_stringIcSt11char_traitsIcESaIcEEE
FNDA:0,_ZNK4masm14macro_registry11core_macrosEv
FNDA:0,_ZNK4masm14macro_registry13system_macrosEv
FNDA:0,_ZNK4masm14macro_registry13custom_macrosEv
FNDA:42,_ZN4masm14macro_registry26register_unary_system_callERKNSt7__cxx1112basic_stringIcSt11char_traitsIcESaIcEEES8_
FNDA:198,_ZN4masm14macro_registry29register_nonunary_system_callERKNSt7__cxx1112basic_stringIcSt11char_traitsIcESaIcEEES8_
FNDA:1911,_ZN4masm14macro_registry14register_macroERKNSt7__cxx1112basic_stringIcSt11char_traitsIcESaIcEEES8_NS_9MacroTypeE
FNDA:6,_ZN4masm14macro_registry12clear_macrosENS_9MacroTypeE
FNDA:1,registry.cpp:_ZZN4masm14macro_registry12clear_macrosENS_9MacroTypeEENK3$_0clISt4pairIKNSt7__cxx1112basic_stringIcSt11char_traitsIcESaIcEEESt10shared_ptrINS_5MacroEEEEEDaRKT_
FNF:12
FNH:8
DA:11,0
DA:13,0
DA:14,0
DA:15,0
DA:16,0
DA:17,0
DA:18,0
DA:19,0
DA:22,161
DA:24,161
DA:27,268
DA:28,268
DA:29,268
DA:30,268
DA:33,483
DA:34,483
DA:35,0
DA:36,483
DA:39,0
DA:40,0
DA:41,0
DA:44,0
DA:45,0
DA:46,0
DA:49,0
DA:50,0
DA:51,0
DA:54,42
DA:55,42
DA:56,42
DA:57,42
DA:59,198
DA:60,198
DA:61,198
DA:62,198
DA:65,1911
DA:66,1911
DA:67,1
DA:68,1
DA:69,1910
DA:70,1910
DA:71,4
DA:72,4
DA:73,1906
DA:74,1
DA:75,1
DA:77,1905
DA:78,1905
DA:79,1905
DA:80,1905
DA:81,1905
DA:85,1905
DA:87,1905
DA:88,1905
DA:89,1906
DA:92,6
DA:94,6
DA:95,1
DA:96,1
DA:97,1
DA:98,6
BRDA:14,0,0,-
BRDA:14,0,1,-
BRDA:34,0,0,483
BRDA:34,0,1,0
BRDA:66,0,0,1
BRDA:66,0,1,1910
BRDA:70,0,0,4
BRDA:70,0,1,1906
BRDA:73,0,0,1
BRDA:73,0,1,1905
BRF:10
BFH:7
LF:65
LH:47
end_of_record
SF:/workspaces/pep10term/dependencies/pepcore/src/libisa/masm/registry.hpp
FN:25,_ZN4masm14macro_registryD2Ev
FN:43,_ZNK4masm14macro_registry16case_insensitiveclERKNSt7__cxx1112basic_stringIcSt11char_traitsIcESaIcEEES9_
FNDA:161,_ZN4masm14macro_registryD2Ev
FNDA:32150,_ZNK4masm14macro_registry16case_insensitiveclERKNSt7__cxx1112basic_stringIcSt11char_traitsIcESaIcEEES9_
FNF:2
FNH:2
DA:25,161
DA:43,32150
DA:44,32150
DA:45,32150
BRF:0
BFH:0
LF:4
LH:4
end_of_record
SF:/workspaces/pep10term/dependencies/pepcore/src/libisa/masm/utils/listing.cpp
FN:5,_ZN4masm5utils15format_bytecodeB5cxx11ERKSt6vectorIhSaIhEEh
FNDA:1,_ZN4masm5utils15format_bytecodeB5cxx11ERKSt6vectorIhSaIhEEh
FNF:1
FNH:1
DA:5,1
DA:6,1
DA:7,4
DA:8,3
DA:9,3
DA:10,3
DA:11,1
DA:12,1
DA:13,1
BRDA:7,0,0,3
BRDA:7,0,1,1
BRDA:9,0,0,0
BRDA:9,0,1,3
BRF:4
BFH:3
LF:9
LH:9
end_of_record
SF:/workspaces/pep10term/dependencies/pepcore/src/libisa/masm/utils/listing.tpp
FN:26,_ZN4masm5utils27generate_formatted_bytecodeItEENSt7__cxx1112basic_stringIcSt11char_traitsIcESaIcEEERSt10shared_ptrINS_3elf17top_level_sectionIT_EEEh
FN:17,_ZN4masm5utils12get_bytecodeItEESt6vectorIhSaIhEERSt10shared_ptrINS_3elf17top_level_sectionIT_EEE
FNDA:1,_ZN4masm5utils27generate_formatted_bytecodeItEENSt7__cxx1112basic_stringIcSt11char_traitsIcESaIcEEERSt10shared_ptrINS_3elf17top_level_sectionIT_EEEh
FNDA:1,_ZN4masm5utils12get_bytecodeItEESt6vectorIhSaIhEERSt10shared_ptrINS_3elf17top_level_sectionIT_EEE
FNF:2
FNH:2
DA:17,1
DA:18,1
DA:19,4
DA:20,1
DA:21,1
DA:26,1
DA:27,1
DA:29,0
DA:30,1
DA:32,1
BRDA:19,0,0,4
BRDA:19,0,1,1
BRF:2
BFH:2
LF:10
LH:9
end_of_record
SF:/workspaces/pep10term/dependencies/pepcore/src/libisa/symbol/entry.hpp
FN:71,_ZN6symbol5entryItED2Ev
FNDA:5530,_ZN6symbol5entryItED2Ev
FNF:1
FNH:1
DA:71,5530
BRF:0
BFH:0
LF:1
LH:1
end_of_record
SF:/workspaces/pep10term/dependencies/pepcore/src/libisa/symbol/entry.tpp
FN:31,_ZN6symbol5entryItEC2ERNS_9LeafTableItEENSt7__cxx1112basic_stringIcSt11char_traitsIcESaIcEEE
FNDA:5530,_ZN6symbol5entryItEC2ERNS_9LeafTableItEENSt7__cxx1112basic_stringIcSt11char_traitsIcESaIcEEE
FNF:1
FNH:1
DA:31,5530
DA:33,5530
BRF:0
BFH:0
LF:2
LH:2
end_of_record
SF:/workspaces/pep10term/dependencies/pepcore/src/libisa/symbol/table.hpp
FN:78,_ZN6symbol11BranchTableItEC2Ev
FN:80,_ZN6symbol11BranchTableItED2Ev
FN:113,_ZN6symbol9LeafTableItED2Ev
FN:111,_ZN6symbol9LeafTableItEC2Ev
FN:96,_ZN6symbol11BranchTableItE8childrenB5cxx11Ev
FNDA:314,_ZN6symbol11BranchTableItEC2Ev
FNDA:314,_ZN6symbol11BranchTableItED2Ev
FNDA:220,_ZN6symbol9LeafTableItED2Ev
FNDA:16,_ZN6symbol9LeafTableItEC2Ev
FNDA:23294,_ZN6symbol11BranchTableItE8childrenB5cxx11Ev
FNF:5
FNH:5
DA:78,314
DA:80,314
DA:96,23294
DA:111,16
DA:113,220
BRF:0
BFH:0
LF:5
LH:5
end_of_record
SF:/workspaces/pep10term/dependencies/pepcore/src/libisa/symbol/table.tpp
FN:175,_ZN6symbol11insert_leafItEESt10shared_ptrINS_9LeafTableIT_EEES1_INS_11BranchTableIS3_EEE
FN:39,_ZN6symbol9LeafTableItEC2ESt10shared_ptrINS_11BranchTableItEEE
FN:33,_ZN6symbol11BranchTableItE9add_childESt7variantIJSt10shared_ptrIS1_ES3_INS_9LeafTableItEEEEE
FN:91,_ZN6symbol9LeafTableItE6defineERKNSt7__cxx1112basic_stringIcSt11char_traitsIcESaIcEEE
FN:52,_ZN6symbol9LeafTableItE9referenceERKNSt7__cxx1112basic_stringIcSt11char_traitsIcESaIcEEE
FN:192,_ZN6symbol6parentItEESt7variantIJSt10shared_ptrINS_11BranchTableIT_EEES2_INS_9LeafTableIS4_EEEEESA_
FN:45,_ZNK6symbol9LeafTableItE3getERKNSt7__cxx1112basic_stringIcSt11char_traitsIcESaIcEEE
FN:168,_ZN6symbol9LeafTableItE7entriesEv
FN:128,_ZN6symbol9LeafTableItE11mark_globalERKNSt7__cxx1112basic_stringIcSt11char_traitsIcESaIcEEE
FN:156,_ZNK6symbol9LeafTableItE6existsERKNSt7__cxx1112basic_stringIcSt11char_traitsIcESaIcEEE
FNDA:204,_ZN6symbol11insert_leafItEESt10shared_ptrINS_9LeafTableIT_EEES1_INS_11BranchTableIS3_EEE
FNDA:204,_ZN6symbol9LeafTableItEC2ESt10shared_ptrINS_11BranchTableItEEE
FNDA:204,_ZN6symbol11BranchTableItE9add_childESt7variantIJSt10shared_ptrIS1_ES3_INS_9LeafTableItEEEEE
FNDA:5432,_ZN6symbol9LeafTableItE6defineERKNSt7__cxx1112basic_stringIcSt11char_traitsIcESaIcEEE
FNDA:17472,_ZN6symbol9LeafTableItE9referenceERKNSt7__cxx1112basic_stringIcSt11char_traitsIcESaIcEEE
FNDA:1,_ZN6symbol6parentItEESt7variantIJSt10shared_ptrINS_11BranchTableIT_EEES2_INS_9LeafTableIS4_EEEEESA_
FNDA:45410,_ZNK6symbol9LeafTableItE3getERKNSt7__cxx1112basic_stringIcSt11char_traitsIcESaIcEEE
FNDA:83,_ZN6symbol9LeafTableItE7entriesEv
FNDA:437,_ZN6symbol9LeafTableItE11mark_globalERKNSt7__cxx1112basic_stringIcSt11char_traitsIcESaIcEEE
FNDA:14,_ZNK6symbol9LeafTableItE6existsERKNSt7__cxx1112basic_stringIcSt11char_traitsIcESaIcEEE
FNF:10
FNH:10
DA:33,204
DA:34,204
DA:35,204
DA:39,204
DA:42,204
DA:45,45410
DA:46,45410
DA:47,21845
DA:48,45410
DA:52,17472
DA:54,17472
DA:55,17472
DA:56,5530
DA:57,5530
DA:58,11942
DA:59,11942
DA:60,11942
DA:63,17472
DA:64,17472
DA:65,17472
DA:66,17677
DA:67,17677
DA:68,205
DA:69,205
DA:72,17472
DA:74,17472
DA:75,326
DA:76,326
DA:77,163
DA:80,163
DA:81,163
DA:82,163
DA:83,326
DA:85,163
DA:86,17472
DA:87,17472
DA:91,5432
DA:92,5432
DA:95,5432
DA:96,5432
DA:98,5432
DA:99,5432
DA:100,1
DA:101,1
DA:102,1
DA:103,352
DA:104,352
DA:105,0
DA:107,353
DA:108,353
DA:109,1
DA:110,1
DA:113,1
DA:114,1
DA:115,1
DA:116,353
DA:117,352
DA:118,5079
DA:119,5079
DA:120,7
DA:121,5079
DA:122,5432
DA:124,5432
DA:128,437
DA:129,437
DA:130,437
DA:133,437
DA:135,437
DA:137,440
DA:138,440
DA:139,3
DA:140,1
DA:141,1
DA:142,1
DA:143,2
DA:144,2
DA:147,2
DA:149,2
DA:150,2
DA:151,3
DA:152,437
DA:156,14
DA:157,14
DA:158,14
DA:168,83
DA:169,83
DA:170,83
DA:175,204
DA:176,204
DA:177,204
DA:178,204
DA:179,204
DA:192,1
DA:193,1
DA:194,0
DA:195,0
DA:196,0
DA:197,0
DA:198,1
DA:199,1
DA:200,1
DA:201,0
DA:202,1
DA:203,0
DA:204,1
BRDA:46,0,0,23565
BRDA:46,0,1,21845
BRDA:55,0,0,5530
BRDA:55,0,1,11942
BRDA:66,0,0,17677
BRDA:66,0,1,17472
BRDA:67,0,0,17472
BRDA:67,0,1,205
BRDA:68,0,0,163
BRDA:68,0,1,42
BRDA:72,0,0,0
BRDA:72,0,1,17472
BRDA:74,0,0,163
BRDA:74,0,1,17309
BRDA:75,0,0,326
BRDA:75,0,1,163
BRDA:76,0,0,163
BRDA:76,0,1,163
BRDA:98,0,0,0
BRDA:98,0,1,5432
BRDA:100,0,0,1
BRDA:100,0,1,5431
BRDA:103,0,0,352
BRDA:103,0,1,5080
BRDA:104,0,0,352
BRDA:104,0,1,0
BRDA:105,0,0,-
BRDA:105,0,1,-
BRDA:107,0,0,353
BRDA:107,0,1,352
BRDA:108,0,0,352
BRDA:108,0,1,1
BRDA:109,0,0,1
BRDA:109,0,1,0
BRDA:118,0,0,5079
BRDA:118,0,1,353
BRDA:119,0,0,5072
BRDA:119,0,1,7
BRDA:120,0,0,6
BRDA:120,0,1,1
BRDA:137,0,0,440
BRDA:137,0,1,437
BRDA:138,0,0,437
BRDA:138,0,1,3
BRDA:139,0,0,1
BRDA:139,0,1,2
BRDA:143,0,0,2
BRDA:143,0,1,0
BRDA:193,0,0,0
BRDA:193,0,1,1
BRDA:195,0,0,-
BRDA:195,0,1,-
BRDA:198,0,0,1
BRDA:198,0,1,0
BRDA:200,0,0,1
BRDA:200,0,1,0
BRF:56
BFH:44
LF:105
LH:98
end_of_record
SF:/workspaces/pep10term/dependencies/pepcore/src/libisa/symbol/value.hpp
FN:48,_ZN6symbol14abstract_valueItEC2Ev
FN:49,_ZN6symbol14abstract_valueItED2Ev
FN:98,_ZN6symbol11value_emptyItED2Ev
FN:76,_ZNK6symbol14abstract_valueItE4sizeEv
FN:84,_ZNK6symbol14abstract_valueItE11relocatableEv
FN:209,_ZN6symbol13value_pointerItED2Ev
FN:133,_ZN6symbol11value_constItED2Ev
FN:161,_ZN6symbol14value_locationItED2Ev
FN:116,_ZN6symbol13value_deletedItEC2Ev
FN:117,_ZN6symbol13value_deletedItED2Ev
FNDA:12448,_ZN6symbol14abstract_valueItEC2Ev
FNDA:12444,_ZN6symbol14abstract_valueItED2Ev
FNDA:5530,_ZN6symbol11value_emptyItED2Ev
FNDA:0,_ZNK6symbol14abstract_valueItE4sizeEv
FNDA:0,_ZNK6symbol14abstract_valueItE11relocatableEv
FNDA:166,_ZN6symbol13value_pointerItED2Ev
FNDA:1356,_ZN6symbol11value_constItED2Ev
FNDA:5392,_ZN6symbol14value_locationItED2Ev
FNDA:1,_ZN6symbol13value_deletedItEC2Ev
FNDA:0,_ZN6symbol13value_deletedItED2Ev
FNF:10
FNH:7
DA:48,12448
DA:49,12444
DA:76,0
DA:84,0
DA:98,5530
DA:116,1
DA:117,0
DA:133,1356
DA:161,5392
DA:209,166
BRF:0
BFH:0
LF:10
LH:7
end_of_record
SF:/workspaces/pep10term/dependencies/pepcore/src/libisa/symbol/value.tpp
FN:28,_ZN6symbol11value_emptyItEC2Ev
FN:33,_ZNK6symbol11value_emptyItE5valueEv
FN:39,_ZNK6symbol11value_emptyItE4typeEv
FN:135,_ZN6symbol13value_pointerItEC2ESt10shared_ptrIKNS_5entryItEEE
FN:141,_ZNK6symbol13value_pointerItE5valueEv
FN:147,_ZNK6symbol13value_pointerItE4typeEv
FN:57,_ZN6symbol11value_constItEC2Et
FN:63,_ZNK6symbol11value_constItE5valueEv
FN:75,_ZNK6symbol11value_constItE4typeEv
FN:84,_ZN6symbol14value_locationItEC2Ett
FN:101,_ZNK6symbol14value_locationItE5valueEv
FN:108,_ZNK6symbol14value_locationItE4typeEv
FN:114,_ZNK6symbol14value_locationItE11relocatableEv
FN:89,_ZN6symbol14value_locationItE10set_offsetEt
FN:48,_ZNK6symbol13value_deletedItE4typeEv
FN:69,_ZN6symbol11value_constItE9set_valueEt
FNDA:5532,_ZN6symbol11value_emptyItEC2Ev
FNDA:6,_ZNK6symbol11value_emptyItE5valueEv
FNDA:0,_ZNK6symbol11value_emptyItE4typeEv
FNDA:166,_ZN6symbol13value_pointerItEC2ESt10shared_ptrIKNS_5entryItEEE
FNDA:244,_ZNK6symbol13value_pointerItE5valueEv
FNDA:0,_ZNK6symbol13value_pointerItE4typeEv
FNDA:1357,_ZN6symbol11value_constItEC2Et
FNDA:4,_ZNK6symbol11value_constItE5valueEv
FNDA:0,_ZNK6symbol11value_constItE4typeEv
FNDA:5393,_ZN6symbol14value_locationItEC2Ett
FNDA:17644,_ZNK6symbol14value_locationItE5valueEv
FNDA:6,_ZNK6symbol14value_locationItE4typeEv
FNDA:1,_ZNK6symbol14value_locationItE11relocatableEv
FNDA:6,_ZN6symbol14value_locationItE10set_offsetEt
FNDA:1,_ZNK6symbol13value_deletedItE4typeEv
FNDA:1,_ZN6symbol11value_constItE9set_valueEt
FNF:16
FNH:13
DA:28,5532
DA:29,5532
DA:33,6
DA:34,6
DA:35,6
DA:39,0
DA:40,0
DA:41,0
DA:48,1
DA:49,1
DA:50,1
DA:57,1357
DA:59,1357
DA:63,4
DA:64,4
DA:65,4
DA:69,1
DA:70,1
DA:71,1
DA:75,0
DA:76,0
DA:77,0
DA:84,5393
DA:85,5393
DA:89,6
DA:90,6
DA:91,6
DA:101,17644
DA:102,17644
DA:104,17644
DA:108,6
DA:109,6
DA:110,6
DA:114,1
DA:115,1
DA:116,1
DA:135,166
DA:137,166
DA:141,244
DA:142,244
DA:143,244
DA:147,0
DA:148,0
DA:149,0
BRF:0
BFH:0
LF:44
LH:35
end_of_record
SF:/workspaces/pep10term/dependencies/pepcore/src/libisa/symbol/visit.tpp
FN:133,_ZN6symbol14select_by_nameItEENSt7__cxx114listISt10shared_ptrINS_5entryIT_EEESaIS7_EEESt7variantIJS3_INS_11BranchTableIS5_EEES3_INS_9LeafTableIS5_EEEEERKNS1_12basic_stringIcSt11char_traitsIcESaIcEEENS_15TraversalPolicyE
FN:47,_ZN6symbol19SelectByNameVisitorItEC2ENSt7__cxx1112basic_stringIcSt11char_traitsIcESaIcEEE
FN:125,_ZN6symbol10root_tableItEESt7variantIJSt10shared_ptrINS_11BranchTableItEEES2_INS_9LeafTableItEEEEES1_IJS2_INS3_IT_EEES2_INS6_ISA_EEEEE
FN:30,_ZN6symbol11RootVisitorItEclESt10shared_ptrINS_11BranchTableItEEE
FN:37,_ZN6symbol11RootVisitorItEclESt10shared_ptrINS_9LeafTableItEEE
FN:51,_ZN6symbol19SelectByNameVisitorItEclB5cxx11ESt10shared_ptrINS_11BranchTableItEEE
FN:62,_ZN6symbol19SelectByNameVisitorItEclB5cxx11ESt10shared_ptrINS_9LeafTableItEEE
FN:142,_ZN6symbol6existsItEEbSt7variantIJSt10shared_ptrINS_11BranchTableIT_EEES2_INS_9LeafTableIS4_EEEEERKNSt7__cxx1112basic_stringIcSt11char_traitsIcESaIcEEENS_15TraversalPolicyE
FN:72,_ZN6symbol16ExistenceVisitorItEC2ENSt7__cxx1112basic_stringIcSt11char_traitsIcESaIcEEE
FN:76,_ZN6symbol16ExistenceVisitorItEclESt10shared_ptrINS_11BranchTableItEEE
FN:84,_ZN6symbol16ExistenceVisitorItEclESt10shared_ptrINS_9LeafTableItEEE
FN:151,_ZN6symbol13adjust_offsetItEEvSt7variantIJSt10shared_ptrINS_11BranchTableIT_EEES2_INS_9LeafTableIS4_EEEEES4_S4_NS_15TraversalPolicyE
FN:97,_ZN6symbol19AdjustOffsetVisitorItEC2Ett
FN:103,_ZN6symbol19AdjustOffsetVisitorItEclESt10shared_ptrINS_11BranchTableItEEE
FN:109,_ZN6symbol19AdjustOffsetVisitorItEclESt10shared_ptrINS_9LeafTableItEEE
FNDA:23341,_ZN6symbol14select_by_nameItEENSt7__cxx114listISt10shared_ptrINS_5entryIT_EEESaIS7_EEESt7variantIJS3_INS_11BranchTableIS5_EEES3_INS_9LeafTableIS5_EEEEERKNS1_12basic_stringIcSt11char_traitsIcESaIcEEENS_15TraversalPolicyE
FNDA:23341,_ZN6symbol19SelectByNameVisitorItEC2ENSt7__cxx1112basic_stringIcSt11char_traitsIcESaIcEEE
FNDA:23341,_ZN6symbol10root_tableItEESt7variantIJSt10shared_ptrINS_11BranchTableItEEES2_INS_9LeafTableItEEEEES1_IJS2_INS3_IT_EEES2_INS6_ISA_EEEEE
FNDA:23286,_ZN6symbol11RootVisitorItEclESt10shared_ptrINS_11BranchTableItEEE
FNDA:23341,_ZN6symbol11RootVisitorItEclESt10shared_ptrINS_9LeafTableItEEE
FNDA:23286,_ZN6symbol19SelectByNameVisitorItEclB5cxx11ESt10shared_ptrINS_11BranchTableItEEE
FNDA:45410,_ZN6symbol19SelectByNameVisitorItEclB5cxx11ESt10shared_ptrINS_9LeafTableItEEE
FNDA:12,_ZN6symbol6existsItEEbSt7variantIJSt10shared_ptrINS_11BranchTableIT_EEES2_INS_9LeafTableIS4_EEEEERKNSt7__cxx1112basic_stringIcSt11char_traitsIcESaIcEEENS_15TraversalPolicyE
FNDA:12,_ZN6symbol16ExistenceVisitorItEC2ENSt7__cxx1112basic_stringIcSt11char_traitsIcESaIcEEE
FNDA:8,_ZN6symbol16ExistenceVisitorItEclESt10shared_ptrINS_11BranchTableItEEE
FNDA:14,_ZN6symbol16ExistenceVisitorItEclESt10shared_ptrINS_9LeafTableItEEE
FNDA:2,_ZN6symbol13adjust_offsetItEEvSt7variantIJSt10shared_ptrINS_11BranchTableIT_EEES2_INS_9LeafTableIS4_EEEEES4_S4_NS_15TraversalPolicyE
FNDA:2,_ZN6symbol19AdjustOffsetVisitorItEC2Ett
FNDA:0,_ZN6symbol19AdjustOffsetVisitorItEclESt10shared_ptrINS_11BranchTableItEEE
FNDA:2,_ZN6symbol19AdjustOffsetVisitorItEclESt10shared_ptrINS_9LeafTableItEEE
FNF:15
FNH:14
DA:30,23286
DA:31,23286
DA:32,23286
DA:33,23286
DA:37,23341
DA:38,23341
DA:39,55
DA:40,23341
DA:47,23341
DA:51,23286
DA:52,23286
DA:53,45355
DA:54,45355
DA:55,45355
DA:56,45355
DA:57,23286
DA:58,23286
DA:62,45410
DA:63,45410
DA:64,21845
DA:65,45410
DA:72,12
DA:76,8
DA:77,8
DA:78,10
DA:79,8
DA:80,8
DA:84,14
DA:85,14
DA:86,14
DA:97,2
DA:99,2
DA:103,0
DA:104,0
DA:105,0
DA:109,2
DA:110,2
DA:111,2
DA:112,8
DA:113,6
DA:114,5
DA:115,5
DA:116,6
DA:117,6
DA:118,2
DA:125,23341
DA:126,23341
DA:127,23341
DA:128,23341
DA:133,23341
DA:134,23341
DA:135,23341
DA:136,23341
DA:137,23341
DA:138,23341
DA:142,12
DA:143,12
DA:144,12
DA:145,11
DA:146,12
DA:147,12
DA:151,2
DA:152,2
DA:153,2
DA:154,2
DA:155,2
DA:156,2
BRDA:31,0,0,0
BRDA:31,0,1,23286
BRDA:38,0,0,23286
BRDA:38,0,1,55
BRDA:53,0,0,45355
BRDA:53,0,1,23286
BRDA:63,0,0,23565
BRDA:63,0,1,21845
BRDA:78,0,0,10
BRDA:78,0,1,8
BRDA:104,0,0,-
BRDA:104,0,1,-
BRDA:112,0,0,6
BRDA:112,0,1,2
BRDA:113,0,0,6
BRDA:113,0,1,0
BRDA:113,1,2,5
BRDA:113,1,3,1
BRDA:135,0,0,0
BRDA:135,0,1,23341
BRDA:136,0,0,23341
BRDA:136,0,1,0
BRDA:144,0,0,1
BRDA:144,0,1,11
BRDA:145,0,0,0
BRDA:145,0,1,11
BRDA:153,0,0,0
BRDA:153,0,1,2
BRDA:154,0,0,0
BRDA:154,0,1,2
BRF:30
BFH:21
LF:67
LH:64
end_of_record
